(lp0
cpyspark.sql.types
_create_row
p1
((lp2
S'categories[0]'
p3
aS'avg(overall)'
p4
aS'stddev_samp(CAST(overall AS DOUBLE))'
p5
a(VBathroom Accessories
p6
F4.276520102472944
F1.1398242263011171
tp7
tp8
Rp9
ag1
((lp10
S'categories[0]'
p11
aS'avg(overall)'
p12
aS'stddev_samp(CAST(overall AS DOUBLE))'
p13
a(VMicro SD Cards
p14
F4.553977112576808
F1.0069962421258767
tp15
tp16
Rp17
ag1
(g10
(VCargo Racks
p18
F4.329571106094808
F1.0094274469442692
tp19
tp20
Rp21
ag1
((lp22
S'categories[0]'
p23
aS'avg(overall)'
p24
aS'stddev_samp(CAST(overall AS DOUBLE))'
p25
a(VEnvelopes
p26
F4.2712765957446805
F0.9209373177650766
tp27
tp28
Rp29
ag1
(g22
(VSkullies & Beanies
p30
F4.453846153846154
F0.9099326502425483
tp31
tp32
Rp33
ag1
(g22
(VHose Timers
p34
F4.2625
F1.155545243651923
tp35
tp36
Rp37
ag1
(g22
(VBedspreads & Coverlets
p38
F4.275167785234899
F1.1302933703541125
tp39
tp40
Rp41
ag1
((lp42
S'categories[0]'
p43
aS'avg(overall)'
p44
aS'stddev_samp(CAST(overall AS DOUBLE))'
p45
a(VServing Utensils
p46
F4.5675675675675675
F0.8616901715885342
tp47
tp48
Rp49
ag1
(g42
(VComputer Equipment Warranties
p50
F4.441814595660749
F1.0844148625022596
tp51
tp52
Rp53
ag1
(g42
(VCuticle Pushers
p54
F4.574660633484163
F0.8739099692227281
tp55
tp56
Rp57
ag1
(g42
(VK
p58
F4.5
F1.0570165328022472
tp59
tp60
Rp61
ag1
(g42
(VCleaning & Sanitizing
p62
F4.344827586206897
F1.0445731209092586
tp63
tp64
Rp65
ag1
(g42
(VSkorts
p66
F4.25
F1.3887301496588274
tp67
tp68
Rp69
ag1
(g42
(VMouse Pads & Wrist Rests
p70
F4.308775731310942
F0.9294920468317353
tp71
tp72
Rp73
ag1
(g42
(VTongs
p74
F4.3374370453273645
F1.0919448170931
tp75
tp76
Rp77
ag1
((lp78
S'categories[0]'
p79
aS'avg(overall)'
p80
aS'stddev_samp(CAST(overall AS DOUBLE))'
p81
a(VFondue
p82
F4.318777292576419
F1.0339187454116936
tp83
tp84
Rp85
ag1
(g78
(VSea Salt
p86
F4.760869565217392
F0.7318434531664995
tp87
tp88
Rp89
ag1
(g78
(VFolk & World
p90
F4.203389830508475
F1.1858310197835968
tp91
tp92
Rp93
ag1
(g78
(VCar Speakerphones
p94
F4.0072568940493465
F1.175676274662747
tp95
tp96
Rp97
ag1
(g78
(VShotguns
p98
F4.074626865671642
F1.2829113769413232
tp99
tp100
Rp101
ag1
(g78
(VOuterwear
p102
F4.2706766917293235
F1.1086971575250493
tp103
tp104
Rp105
ag1
(g78
(VHerbal
p106
F4.1571428571428575
F1.162652069352018
tp107
tp108
Rp109
ag1
(g78
(VHawaii
p110
F4.923076923076923
F0.27735009811261463
tp111
tp112
Rp113
ag1
(g78
(VLondon Fog
p114
F4.363636363636363
F1.0248118044059409
tp115
tp116
Rp117
ag1
(g78
(VSnowmobiling Equipment
p118
F4.384615384615385
F0.6504436355879908
tp119
tp120
Rp121
ag1
(g78
(VNew Wave & Post-Punk
p122
F4.177935943060498
F1.1037326326848735
tp123
tp124
Rp125
ag1
(g78
(VSwim
p126
F4.322147651006712
F0.9902395012949641
tp127
tp128
Rp129
ag1
(g78
(VL.B. Evans
p130
F4.577540106951871
F0.8412281997980525
tp131
tp132
Rp133
ag1
(g78
(VElectric Blues
p134
F4.44213649851632
F0.9927140253238129
tp135
tp136
Rp137
ag1
(g78
(VNail Strengthening
p138
F4.152272727272727
F1.2724500851900096
tp139
tp140
Rp141
ag1
(g78
(VReplacement Wheels
p142
F4.6
F0.699205898780101
tp143
tp144
Rp145
ag1
((lp146
S'categories[0]'
p147
aS'avg(overall)'
p148
aS'stddev_samp(CAST(overall AS DOUBLE))'
p149
a(V3DO
p150
F2.2
F1.7888543819998317
tp151
tp152
Rp153
ag1
(g146
(VAmericana
p154
F4.503237742830712
F0.8086561027408906
tp155
tp156
Rp157
ag1
(g146
(VPC
p158
F3.8047054661241817
F1.3537988729797958
tp159
tp160
Rp161
ag1
(g146
(VHeadsets
p162
F3.9411797133406834
F1.2533485388773453
tp163
tp164
Rp165
ag1
(g146
(VDisplay Cases
p166
F4.6923076923076925
F0.7997975452327445
tp167
tp168
Rp169
ag1
(g146
(VMotion Sickness & Nausea
p170
F4.026041666666667
F1.271660067823839
tp171
tp172
Rp173
ag1
(g146
(VHardtail Mountain Bikes
p174
F4.163934426229508
F1.0030009615956252
tp175
tp176
Rp177
ag1
(g146
(VChalk
p178
F4.4423076923076925
F0.9012065599126399
tp179
tp180
Rp181
ag1
(g146
(VCarts & Stands
p182
F4.209876543209877
F1.1907565807367604
tp183
tp184
Rp185
ag1
(g146
(VOuterwear & Coats
p186
F4.314285714285714
F1.1825055296830933
tp187
tp188
Rp189
ag1
(g146
(VWeapon Cases
p190
F4.6
F0.894427190999916
tp191
tp192
Rp193
ag1
(g146
(VShovels
p194
F4.543478260869565
F0.9822088879240037
tp195
tp196
Rp197
ag1
(g146
(VWorld Apparel
p198
F4.4
F0.9660917830792958
tp199
tp200
Rp201
ag1
(g146
(VNew York Blues
p202
F4.7368421052631575
F0.6533762964749499
tp203
tp204
Rp205
ag1
(g146
(VPower Converters
p206
F3.7761194029850746
F1.444119691194815
tp207
tp208
Rp209
ag1
(g146
(VLawnmowers
p210
F4.833333333333333
F0.408248290463863
tp211
tp212
Rp213
ag1
(g146
(VAttachments
p214
F4.375
F1.407885953173359
tp215
tp216
Rp217
ag1
(g146
(VWalking
p218
F4.240862792091073
F1.105678919871657
tp219
tp220
Rp221
ag1
(g146
(VHome Theater Systems
p222
F3.9164989939637826
F1.2757935318389997
tp223
tp224
Rp225
ag1
(g146
(VRaspberry Ketones
p226
F3.949733885274985
F1.4268613671600028
tp227
tp228
Rp229
ag1
(g146
(VAcoustic Guitars
p230
F4.573170731707317
F0.8169574358387942
tp231
tp232
Rp233
ag1
(g146
(VBoxing
p234
F4.3853591160221
F0.9594004630240021
tp235
tp236
Rp237
ag1
(g146
(VEngine Computers
p238
F4.033333333333333
F1.188546876720022
tp239
tp240
Rp241
ag1
(g146
(VPresentation Boards
p242
F4.100724160631994
F0.9470810866025848
tp243
tp244
Rp245
ag1
(g146
(VCasual Button-Down Shirts
p246
F4.175675675675675
F1.13625144159423
tp247
tp248
Rp249
ag1
(g146
(VDerailleurs & Shifters
p250
F4.614795918367347
F0.761668285521984
tp251
tp252
Rp253
ag1
(g146
(VWater
p254
F4.538461538461538
F0.9674179220468452
tp255
tp256
Rp257
ag1
(g146
(VChild Seats & Cargo Trailers
p258
F4.333333333333333
F1.0936537072458306
tp259
tp260
Rp261
ag1
(g146
(VCity Life
p262
F4.8
F0.4472135954999579
tp263
tp264
Rp265
ag1
(g146
(VWristlets
p266
F4.2727272727272725
F1.1037127426019047
tp267
tp268
Rp269
ag1
(g146
(VGenerators & Portable Power
p270
F4.2592592592592595
F1.1297580609817646
tp271
tp272
Rp273
ag1
(g146
(VCutting & Measuring Devices
p274
F4.123425692695214
F1.0187040453264535
tp275
tp276
Rp277
ag1
((lp278
S'categories[0]'
p279
aS'avg(overall)'
p280
aS'stddev_samp(CAST(overall AS DOUBLE))'
p281
a(VCholine
p282
F4.242718446601942
F1.0356194744937666
tp283
tp284
Rp285
ag1
(g278
(VVideo Editing
p286
F4.279411764705882
F0.8951876020391483
tp287
tp288
Rp289
ag1
(g278
(VCleaning & Organization
p290
F4.119496855345912
F1.132739369590564
tp291
tp292
Rp293
ag1
(g278
(VKindle (2nd Generation) Reading Lights
p294
F4.404255319148936
F1.0554533447376693
tp295
tp296
Rp297
ag1
(g278
(VCopper
p298
F4.358974358974359
F0.7066294900210022
tp299
tp300
Rp301
ag1
(g278
(VLab, Safety & Work Gloves
p302
F3.8
F0.951453182187509
tp303
tp304
Rp305
ag1
(g278
(VFertilizer Spreaders
p306
F4.25
F1.0350983390135313
tp307
tp308
Rp309
ag1
(g278
(VHome & Kitchen
p310
F4.29429451850243
F1.1317438357962522
tp311
tp312
Rp313
ag1
(g278
(VTops & Tees
p314
F4.08707148928133
F1.1825979772163284
tp315
tp316
Rp317
ag1
(g278
(VTuning
p318
F4.5607476635514015
F0.8185360812505879
tp319
tp320
Rp321
ag1
(g278
(VEducation
p322
F4.142324888226527
F1.2674318778727167
tp323
tp324
Rp325
ag1
(g278
(VMessenger Bags
p326
F4.373913043478261
F0.9539357259943712
tp327
tp328
Rp329
ag1
(g278
(VToe Separators
p330
F3.7685185185185186
F1.350711003363462
tp331
tp332
Rp333
ag1
(g278
(VCapezio
p334
F4.137014314928425
F1.0862592233000827
tp335
tp336
Rp337
ag1
(g278
(VSnow & Ice
p338
F4.407766990291262
F0.7597328375092604
tp339
tp340
Rp341
ag1
(g278
(VBall Returns & Guard Nets
p342
F4.6
F0.894427190999916
tp343
tp344
Rp345
ag1
(g278
(VDr. Martens
p346
F4.3
F1.1595018087284057
tp347
tp348
Rp349
ag1
(g278
(VExterior Accessories
p350
F4.092592592592593
F1.2924821595574476
tp351
tp352
Rp353
ag1
(g278
(VDew Caps
p354
F3.5714285714285716
F1.785164750607962
tp355
tp356
Rp357
ag1
(g278
(VVegetable
p358
F3.857142857142857
F1.0690449676496974
tp359
tp360
Rp361
ag1
(g278
(VKnee Pads
p362
F4.384615384615385
F0.997432601668802
tp363
tp364
Rp365
ag1
(g278
(VComedic Music
p366
F4.352328431372549
F1.0430380424694463
tp367
tp368
Rp369
ag1
(g278
(VLoader Accessories
p370
F4.666666666666667
F0.5163977794943222
tp371
tp372
Rp373
ag1
(g278
(VComposting & Yard Waste Bins
p374
F4.2976190476190474
F0.8887484350690223
tp375
tp376
Rp377
ag1
(g278
(V40V G-MAX
p378
F4.375
F0.7071067811865474
tp379
tp380
Rp381
ag1
(g278
(VLinux Games
p382
F4.117647058823529
F1.299016984994674
tp383
tp384
Rp385
ag1
(g278
(VSofas & Couches
p386
F3.8086956521739133
F1.3304507360086064
tp387
tp388
Rp389
ag1
(g278
(VSports Medicine
p390
F4.411458333333333
F0.955973780793813
tp391
tp392
Rp393
ag1
(g278
(VCharcoal Air Purifiers
p394
F3.8544303797468356
F1.3676235810534116
tp395
tp396
Rp397
ag1
(g278
(VShapewear
p398
F4.6
F0.5477225575051662
tp399
tp400
Rp401
ag1
(g278
(VUpright Bass
p402
F4.6
F0.5477225575051662
tp403
tp404
Rp405
ag1
(g278
(VConcertos
p406
F4.5379955947136565
F0.8925711035337973
tp407
tp408
Rp409
ag1
(g278
(VFace Guards
p410
F4.583333333333333
F0.5835920751217648
tp411
tp412
Rp413
ag1
(g278
(VDesktop Calendars & Supplies
p414
F4.863636363636363
F0.35125008665710444
tp415
tp416
Rp417
ag1
(g278
(VCloths & Towels
p418
F4.403076923076923
F0.9602210246925987
tp419
tp420
Rp421
ag1
(g278
(VNavigation
p422
F3.420971472629144
F1.4646423255977798
tp423
tp424
Rp425
ag1
(g278
(VShooting Tables
p426
F3.6818181818181817
F1.3587937099944003
tp427
tp428
Rp429
ag1
(g278
(VStacking Chairs
p430
F4.388888888888889
F0.6076849889141857
tp431
tp432
Rp433
ag1
(g278
(VLutes
p434
F4.0
F0.7071067811865476
tp435
tp436
Rp437
ag1
(g278
(VPorous-Point Pens
p438
F4.553191489361702
F0.7126660723504932
tp439
tp440
Rp441
ag1
(g278
(VBakeware
p442
F4.506993789514911
F0.9543907493313856
tp443
tp444
Rp445
ag1
(g278
(VSatellite Finders
p446
F3.6769230769230767
F1.5011213757106334
tp447
tp448
Rp449
ag1
(g278
(VHunting
p450
F4.229160726166715
F1.144190711772338
tp451
tp452
Rp453
ag1
(g278
(VTablecloths
p454
F4.512912912912913
F0.8838740842780702
tp455
tp456
Rp457
ag1
(g278
(VRangefinders
p458
F4.35
F0.8986807657027426
tp459
tp460
Rp461
ag1
(g278
(VWaffle Irons
p462
F4.266953199617956
F1.1883679665790348
tp463
tp464
Rp465
ag1
(g278
(VTops
p466
F3.9065420560747666
F1.2297769581381754
tp467
tp468
Rp469
ag1
(g278
(VIce Hockey
p470
F4.490445859872612
F0.8594708747537969
tp471
tp472
Rp473
ag1
(g278
(VHighlights
p474
F3.7682291666666665
F1.228865612702142
tp475
tp476
Rp477
ag1
(g278
(VRomance
p478
F4.306228373702422
F0.9876161957873142
tp479
tp480
Rp481
ag1
(g278
(VCandy Dishes
p482
F4.375
F1.0959411282189109
tp483
tp484
Rp485
ag1
(g278
(VTopwater Lures
p486
F4.511627906976744
F0.7358860232418182
tp487
tp488
Rp489
ag1
(g278
(VCoils
p490
F5.0
F0.0
tp491
tp492
Rp493
ag1
(g278
(VShort Stories
p494
F4.583333333333333
F0.6491753010001007
tp495
tp496
Rp497
ag1
(g278
(VShade Cloth
p498
F4.75
F0.4629100498862758
tp499
tp500
Rp501
ag1
(g278
(VBrake Line Tools
p502
F4.2
F0.8366600265340756
tp503
tp504
Rp505
ag1
(g278
(VMidrange Discs
p506
F4.2
F1.0954451150103324
tp507
tp508
Rp509
ag1
(g278
(VInput Devices
p510
F4.149881928045562
F1.1636454037956125
tp511
tp512
Rp513
ag1
(g278
(VHair Relaxers
p514
F4.016949152542373
F1.420193350407744
tp515
tp516
Rp517
ag1
(g278
(VHandlebar Tape
p518
F4.466442953020135
F0.8726376084747801
tp519
tp520
Rp521
ag1
(g278
(VStudio Monitors
p522
F3.923076923076923
F1.5525000516123697
tp523
tp524
Rp525
ag1
(g278
(VOutdoor Power Covers
p526
F4.0
F0.8164965809277259
tp527
tp528
Rp529
ag1
(g278
(VSeat Cushions
p530
F3.75
F1.164964745021435
tp531
tp532
Rp533
ag1
(g278
(VWheels
p534
F5.0
F0.0
tp535
tp536
Rp537
ag1
((lp538
S'categories[0]'
p539
aS'avg(overall)'
p540
aS'stddev_samp(CAST(overall AS DOUBLE))'
p541
a(VInstrument Accessories
p542
F4.75
F0.45226701686664533
tp543
tp544
Rp545
ag1
(g538
(VNozzles
p546
F4.276470588235294
F1.216274947390819
tp547
tp548
Rp549
ag1
(g538
(VMotown
p550
F4.418050105644431
F0.9498284557301668
tp551
tp552
Rp553
ag1
(g538
(VPsychedelic Rock
p554
F3.875
F1.1259916264596033
tp555
tp556
Rp557
ag1
(g538
(VSpreaders
p558
F4.321100917431193
F1.0172651603136909
tp559
tp560
Rp561
ag1
(g538
(VStep Platforms
p562
F4.405405405405405
F0.8901118741279277
tp563
tp564
Rp565
ag1
(g538
(VKids' Helmets
p566
F4.375
F0.806225774829855
tp567
tp568
Rp569
ag1
(g538
(VIrish Folk
p570
F4.471264367816092
F0.9507779866198253
tp571
tp572
Rp573
ag1
(g538
(VBaby Dolls
p574
F3.7058823529411766
F1.5315313367000096
tp575
tp576
Rp577
ag1
(g538
(VIZOD
p578
F4.075
F1.0951524890895215
tp579
tp580
Rp581
ag1
(g538
(VMicrosoft Windows
p582
F3.996031746031746
F1.4075745628103684
tp583
tp584
Rp585
ag1
(g538
(VIndoor Volleyballs
p586
F4.7727272727272725
F0.42893202722888857
tp587
tp588
Rp589
ag1
(g538
(VCargo Boxes
p590
F4.333333333333333
F0.9242113755341179
tp591
tp592
Rp593
ag1
(g538
(VPersonal Care Products
p594
F4.614942528735632
F0.8160285520948585
tp595
tp596
Rp597
ag1
(g538
(VRave
p598
F4.368421052631579
F0.8950807732508137
tp599
tp600
Rp601
ag1
(g538
(VSuits & Sport Coats
p602
F4.2631578947368425
F1.0438322021730282
tp603
tp604
Rp605
ag1
(g538
(VEastland
p606
F3.980769230769231
F1.3059499527296943
tp607
tp608
Rp609
ag1
(g538
(VCinnamon
p610
F4.78125
F0.5526694748103036
tp611
tp612
Rp613
ag1
(g538
(VCorrection Fluid
p614
F4.681818181818182
F0.5679003631895498
tp615
tp616
Rp617
ag1
(g538
(VDiesel Watches
p618
F4.454545454545454
F1.2135597524338357
tp619
tp620
Rp621
ag1
(g538
(VNecks
p622
F4.0
F1.0
tp623
tp624
Rp625
ag1
(g538
(VHandheld GPS Units
p626
F4.296296296296297
F0.9533267586887033
tp627
tp628
Rp629
ag1
(g538
(VCorrosion & Rust Inhibitors
p630
F3.75
F1.4847711791873706
tp631
tp632
Rp633
ag1
(g538
(VFlag Football Belts
p634
F4.333333333333333
F0.8660254037844386
tp635
tp636
Rp637
ag1
(g538
(VRollerball Pens
p638
F4.4630156472261735
F0.8272824841925442
tp639
tp640
Rp641
ag1
(g538
(VRingtones
p642
F3.550387596899225
F1.5149642176307652
tp643
tp644
Rp645
ag1
(g538
(VCleansing Cloths, Swabs & Wipes
p646
F4.335820895522388
F1.0236457563376644
tp647
tp648
Rp649
ag1
(g538
(VDrivetrain Components
p650
F4.564425770308123
F0.7869343419737105
tp651
tp652
Rp653
ag1
(g538
(VSteak Knives
p654
F4.6
F0.8280786712108251
tp655
tp656
Rp657
ag1
(g538
(VHome Permanent Kits
p658
F4.5
F1.1602387022306428
tp659
tp660
Rp661
ag1
(g538
(VPool Brushes
p662
F4.8125
F0.5439056290693574
tp663
tp664
Rp665
ag1
(g538
(VSinglets
p666
F4.4
F0.8944271909999159
tp667
tp668
Rp669
ag1
(g538
(VNike
p670
F4.806451612903226
F0.7491931143441223
tp671
tp672
Rp673
ag1
(g538
(VFlatbread
p674
F4.6
F0.8944271909999159
tp675
tp676
Rp677
ag1
(g538
(VSecurity Locks
p678
F3.9902912621359223
F1.2880203195067856
tp679
tp680
Rp681
ag1
(g538
(VInstrumental
p682
F4.5618479880774965
F0.8596973682160416
tp683
tp684
Rp685
ag1
(g538
(VSeasoning & Spice Tools
p686
F4.127937336814622
F1.3098940882850258
tp687
tp688
Rp689
ag1
(g538
(VBar & Wine Tools
p690
F4.3877342419080065
F1.0632291287397295
tp691
tp692
Rp693
ag1
(g538
(VOperettas
p694
F4.472148541114058
F0.9137797928340007
tp695
tp696
Rp697
ag1
(g538
(VStationery
p698
F4.0966386554621845
F1.1920575958892137
tp699
tp700
Rp701
ag1
(g538
(VTable Runners
p702
F4.526315789473684
F0.9093699731167616
tp703
tp704
Rp705
ag1
(g538
(VAA
p706
F4.557275541795666
F0.9288345325393588
tp707
tp708
Rp709
ag1
(g538
(VHavahart
p710
F4.003610108303249
F1.0948890958168607
tp711
tp712
Rp713
ag1
(g538
(VSteel
p714
F3.619047619047619
F1.2031704150364766
tp715
tp716
Rp717
ag1
(g538
(VGPS System Accessories
p718
F3.9508196721311477
F1.0396510553738167
tp719
tp720
Rp721
ag1
(g538
(VDesks & Workstations
p722
F4.0
F1.2909944487358054
tp723
tp724
Rp725
ag1
(g538
(VAirsoft, Air Guns & Slingshots
p726
F4.722222222222222
F0.5745131499601415
tp727
tp728
Rp729
ag1
(g538
(VContemporary Folk
p730
F4.405190554126724
F0.9587864525408472
tp731
tp732
Rp733
ag1
(g538
(VUpright Vacuums
p734
F4.099537037037037
F1.1926579298464703
tp735
tp736
Rp737
ag1
(g538
(VPencils
p738
F4.396778916544656
F0.9406687220264232
tp739
tp740
Rp741
ag1
(g538
(VUnderwater Photography
p742
F4.009541397353032
F1.2587995954051858
tp743
tp744
Rp745
ag1
(g538
(VGolf
p746
F4.35
F0.9487850389804058
tp747
tp748
Rp749
ag1
(g538
(VAxes
p750
F4.586206896551724
F1.086187348326717
tp751
tp752
Rp753
ag1
(g538
(VTrunk Organizers
p754
F4.095238095238095
F0.8890872794479688
tp755
tp756
Rp757
ag1
(g538
(VNumeric Keypads
p758
F3.8666666666666667
F1.308981602552494
tp759
tp760
Rp761
ag1
(g538
(VGreenhouses & Accessories
p762
F4.125
F1.1845783243211963
tp763
tp764
Rp765
ag1
(g538
(VGenetic Engineering
p766
F4.578947368421052
F0.6924826089821245
tp767
tp768
Rp769
ag1
(g538
(VKitchen & Bath Fixtures
p770
F3.8
F1.3038404810405297
tp771
tp772
Rp773
ag1
(g538
(VBritish & Celtic Folk
p774
F4.444444444444445
F0.726483157256779
tp775
tp776
Rp777
ag1
(g538
(VAlmond Butter
p778
F4.333333333333333
F0.9847319278346618
tp779
tp780
Rp781
ag1
(g538
(VTable Covers
p782
F4.666666666666667
F0.6172133998483679
tp783
tp784
Rp785
ag1
(g538
(VTeam Sports
p786
F4.522304832713755
F0.78419245491481
tp787
tp788
Rp789
ag1
(g538
(VDiarrhea Relief
p790
F4.652
F0.8280329427123462
tp791
tp792
Rp793
ag1
(g538
(VFood
p794
F4.329896907216495
F1.050256810287442
tp795
tp796
Rp797
ag1
(g538
(VTurkey
p798
F4.661016949152542
F0.6594190099945981
tp799
tp800
Rp801
ag1
(g538
(VLeSportsac
p802
F4.636363636363637
F0.6030226891555273
tp803
tp804
Rp805
ag1
(g538
(VShooter Sleeves
p806
F4.076923076923077
F1.1875421719907087
tp807
tp808
Rp809
ag1
(g538
(VSuspension
p810
F4.7105263157894735
F0.5150646633160448
tp811
tp812
Rp813
ag1
(g538
(VSignal Processors
p814
F4.326923076923077
F1.1835664588836017
tp815
tp816
Rp817
ag1
(g538
(VKindle DX Covers (Previous Generation)
p818
F4.188118811881188
F1.1892255571347996
tp819
tp820
Rp821
ag1
(g538
(VCross-Body Bags
p822
F4.40771349862259
F0.9884113071820607
tp823
tp824
Rp825
ag1
(g538
(VHistorical Romance
p826
F4.833333333333333
F0.408248290463863
tp827
tp828
Rp829
ag1
(g538
(VPick Guards
p830
F4.361111111111111
F1.334225891728507
tp831
tp832
Rp833
ag1
(g538
(VSD & SDHC Cards
p834
F3.966666666666667
F1.2994251602637361
tp835
tp836
Rp837
ag1
(g538
(VPost-Workout & Recovery
p838
F4.247058823529412
F1.1083959554926452
tp839
tp840
Rp841
ag1
(g538
(VBlush
p842
F4.234841193455245
F1.1288384522372725
tp843
tp844
Rp845
ag1
(g538
(VBikinis
p846
F4.123515439429929
F1.1679195779954312
tp847
tp848
Rp849
ag1
(g538
(VPatio Furniture & Accessories
p850
F4.277777777777778
F0.9197347170165616
tp851
tp852
Rp853
ag1
(g538
(VHarmonica Blues
p854
F4.671568627450981
F0.6983269875022508
tp855
tp856
Rp857
ag1
(g538
(VChair Mats
p858
F4.333333333333333
F1.0206207261596576
tp859
tp860
Rp861
ag1
(g538
(VWindshield & Glass Repair Tools
p862
F3.75
F1.2597446256043843
tp863
tp864
Rp865
ag1
(g538
(VChalk Bags
p866
F4.846153846153846
F0.3755338080994055
tp867
tp868
Rp869
ag1
(g538
(VLob Wedges
p870
F4.5
F0.5477225575051661
tp871
tp872
Rp873
ag1
(g538
(VMechanical Pencil Eraser Refills
p874
F4.875
F0.3535533905932738
tp875
tp876
Rp877
ag1
(g538
(VSmooth Jazz
p878
F4.482777777777778
F0.8963721927299229
tp879
tp880
Rp881
ag1
(g538
(VSalad Serving Sets
p882
F4.661016949152542
F0.7097879598750849
tp883
tp884
Rp885
ag1
(g538
(VSleepwear & Robes
p886
F4.368584758942458
F0.987180613700661
tp887
tp888
Rp889
ag1
(g538
(VTea
p890
F4.2612456747404845
F0.9917789481534298
tp891
tp892
Rp893
ag1
(g538
(VVideo Converters
p894
F4.014738162433365
F1.373972446705321
tp895
tp896
Rp897
ag1
(g538
(VMICHAEL Michael Kors
p898
F4.78125
F0.75067174218571
tp899
tp900
Rp901
ag1
(g538
(VChemises & Negligees
p902
F4.405405405405405
F1.0457863125310214
tp903
tp904
Rp905
ag1
(g538
(VWashers
p906
F3.933333333333333
F1.0997835284835875
tp907
tp908
Rp909
ag1
(g538
(VCamping & Hiking
p910
F4.435900413395885
F0.9368868908590934
tp911
tp912
Rp913
ag1
(g538
(VReflective Gear
p914
F4.174041297935103
F1.1156916864070632
tp915
tp916
Rp917
ag1
(g538
(VClassic R&B
p918
F4.731241473396999
F0.6735179745951432
tp919
tp920
Rp921
ag1
(g538
(VCalcium Ascorbate
p922
F4.561904761904762
F0.9499373412920203
tp923
tp924
Rp925
ag1
(g538
(VMousses & Foams
p926
F3.934379457917261
F1.212424639816662
tp927
tp928
Rp929
ag1
(g538
(VEssential Oils
p930
F4.274143302180685
F1.2013994306226015
tp931
tp932
Rp933
ag1
(g538
(VEgg Cookers
p934
F4.196861626248217
F1.3032010565075882
tp935
tp936
Rp937
ag1
(g538
(VCooking Tools & Accessories
p938
F4.5776
F0.7991245209602817
tp939
tp940
Rp941
ag1
(g538
(VLights & Reflectors
p942
F4.279335793357934
F1.1002772905354081
tp943
tp944
Rp945
ag1
(g538
(VF
p946
F4.3
F1.0875470659652646
tp947
tp948
Rp949
ag1
(g538
(VAudio Adapters
p950
F3.6149068322981366
F1.5946253646540414
tp951
tp952
Rp953
ag1
(g538
(VActivity Play Centers
p954
F4.2
F1.0954451150103321
tp955
tp956
Rp957
ag1
(g538
(VMemory Sticks
p958
F4.333333333333333
F1.0730867399773196
tp959
tp960
Rp961
ag1
(g538
(VBanjo Accessories
p962
F4.769230769230769
F0.5991446895152781
tp963
tp964
Rp965
ag1
(g538
(VFashion Hoodies
p966
F3.6
F1.51657508881031
tp967
tp968
Rp969
ag1
(g538
(VNintendo DS
p970
F4.269492460463406
F1.033824174044939
tp971
tp972
Rp973
ag1
(g538
(VBackpacks
p974
F4.093457943925234
F1.2478865928786553
tp975
tp976
Rp977
ag1
(g538
(VMixer Parts & Accessories
p978
F4.337382445141066
F1.152182275669748
tp979
tp980
Rp981
ag1
(g538
(VWorkout Shorts
p982
F4.0
F1.414213562373095
tp983
tp984
Rp985
ag1
(g538
(VWashcloths
p986
F4.175548589341693
F1.1675482220677567
tp987
tp988
Rp989
ag1
(g538
(VMac Game Downloads
p990
F3.8646616541353382
F1.3471741180529666
tp991
tp992
Rp993
ag1
(g538
(VSeiko Watches
p994
F4.454545454545454
F0.9341987329938275
tp995
tp996
Rp997
ag1
(g538
(VSpikes
p998
F4.363636363636363
F0.8090398349558905
tp999
tp1000
Rp1001
ag1
(g538
(VGolf Club Bag Accessories
p1002
F4.180327868852459
F1.1181561715805695
tp1003
tp1004
Rp1005
ag1
(g538
(VKids & Baby
p1006
F4.166666666666667
F0.9831920802501751
tp1007
tp1008
Rp1009
ag1
(g538
(VChocolate & Carob
p1010
F3.4358974358974357
F1.3479525686465956
tp1011
tp1012
Rp1013
ag1
(g538
(VMemphis Soul
p1014
F4.687898089171974
F0.744337543966015
tp1015
tp1016
Rp1017
ag1
(g538
(VEurope
p1018
F4.322423917255358
F1.040255396097323
tp1019
tp1020
Rp1021
ag1
(g538
(VPop Rap
p1022
F3.924309290672551
F1.3149109977268816
tp1023
tp1024
Rp1025
ag1
(g538
(VSwitches
p1026
F4.500594177064765
F1.0320231109687301
tp1027
tp1028
Rp1029
ag1
(g538
(VChristian
p1030
F4.432421227197347
F0.9283731327398399
tp1031
tp1032
Rp1033
ag1
(g538
(VServing Bowls & Tureens
p1034
F4.561717352415027
F0.8831667114322538
tp1035
tp1036
Rp1037
ag1
(g538
(VNewspapers
p1038
F3.264761904761905
F1.6346662563160559
tp1039
tp1040
Rp1041
ag1
(g538
(VDecorative Combs
p1042
F3.945945945945946
F1.479465767073454
tp1043
tp1044
Rp1045
ag1
(g538
(VFooties
p1046
F4.7218045112781954
F0.6554362814724276
tp1047
tp1048
Rp1049
ag1
(g538
(VRoll into Spring
p1050
F3.9478260869565216
F1.249233674344246
tp1051
tp1052
Rp1053
ag1
((lp1054
S'categories[0]'
p1055
aS'avg(overall)'
p1056
aS'stddev_samp(CAST(overall AS DOUBLE))'
p1057
a(VRay-Ban
p1058
F4.453488372093023
F1.0135200946286869
tp1059
tp1060
Rp1061
ag1
(g1054
(VFlies
p1062
F3.762962962962963
F1.2531000806204013
tp1063
tp1064
Rp1065
ag1
(g1054
(VRompers
p1066
F4.509433962264151
F0.9327923651685249
tp1067
tp1068
Rp1069
ag1
(g1054
(VPickle & Olive Forks
p1070
F4.777777777777778
F0.4409585518440985
tp1071
tp1072
Rp1073
ag1
(g1054
(VMultitools & Accessories
p1074
F4.4
F0.8944271909999159
tp1075
tp1076
Rp1077
ag1
(g1054
(VBaroque Pop
p1078
F4.6
F0.5163977794943223
tp1079
tp1080
Rp1081
ag1
(g1054
(VCombination Padlocks
p1082
F4.4
F1.0090499582190258
tp1083
tp1084
Rp1085
ag1
(g1054
(VTV
p1086
F4.41463314309219
F1.0229151869676347
tp1087
tp1088
Rp1089
ag1
(g1054
(VSpeakers
p1090
F4.329110779930452
F1.0633275108952192
tp1091
tp1092
Rp1093
ag1
(g1054
(VAll-New Kindle Fire HD Covers
p1094
F4.263392857142857
F1.0753696028241508
tp1095
tp1096
Rp1097
ag1
(g1054
(VMountain Bikes
p1098
F3.806451612903226
F1.1667434690542071
tp1099
tp1100
Rp1101
ag1
(g1054
(VHard Science Fiction
p1102
F4.5
F0.7559289460184544
tp1103
tp1104
Rp1105
ag1
(g1054
(VFeeding
p1106
F4.177777777777778
F1.3019022601368717
tp1107
tp1108
Rp1109
ag1
(g1054
(VCoin Purses & Pouches
p1110
F4.2976190476190474
F0.9666706233721226
tp1111
tp1112
Rp1113
ag1
(g1054
(VHoodies & Active
p1114
F4.65625
F0.6530017536902797
tp1115
tp1116
Rp1117
ag1
(g1054
(VTubes & Pods
p1118
F4.827586206896552
F0.4682006222337797
tp1119
tp1120
Rp1121
ag1
(g1054
(VContact Management
p1122
F3.8333333333333335
F0.9831920802501751
tp1123
tp1124
Rp1125
ag1
(g1054
(VCard Boxes
p1126
F4.6
F0.5477225575051662
tp1127
tp1128
Rp1129
ag1
(g1054
(VGangsta & Hardcore
p1130
F3.9782761037140855
F1.2974472926452636
tp1131
tp1132
Rp1133
ag1
(g1054
(VBags & Cases
p1134
F4.374897273066866
F0.9751106253700802
tp1135
tp1136
Rp1137
ag1
(g1054
(VTravel Duffels
p1138
F4.384615384615385
F1.021311374203246
tp1139
tp1140
Rp1141
ag1
(g1054
(VCamcorder Batteries
p1142
F4.457674418604651
F1.0502972163150346
tp1143
tp1144
Rp1145
ag1
(g1054
(VBlu-ray Players
p1146
F3.940304293051652
F1.340514385614105
tp1147
tp1148
Rp1149
ag1
(g1054
(VTrench & Rain
p1150
F4.45945945945946
F0.8988153834817132
tp1151
tp1152
Rp1153
ag1
(g1054
(VNicotine Gums & Lozenges
p1154
F3.9869281045751634
F1.0386411169393603
tp1155
tp1156
Rp1157
ag1
(g1054
(VThe SAK
p1158
F4.5
F0.9224300477447905
tp1159
tp1160
Rp1161
ag1
(g1054
(VKindle Paperwhite Power Adapters
p1162
F4.287215411558669
F1.1057240800650727
tp1163
tp1164
Rp1165
ag1
(g1054
(VNitric Oxide Boosters
p1166
F4.1022727272727275
F1.245888502667259
tp1167
tp1168
Rp1169
ag1
(g1054
(VFolk & World Instrument Accessories
p1170
F4.512195121951219
F1.0276660746446824
tp1171
tp1172
Rp1173
ag1
(g1054
(VAcupuncture
p1174
F4.217948717948718
F1.2342244622879681
tp1175
tp1176
Rp1177
ag1
(g1054
(VField Equipment
p1178
F4.516129032258065
F0.6768046366042658
tp1179
tp1180
Rp1181
ag1
(g1054
(VShoe Bags
p1182
F4.5
F0.8366600265340757
tp1183
tp1184
Rp1185
ag1
(g1054
(VRadiator Caps
p1186
F4.6
F0.894427190999916
tp1187
tp1188
Rp1189
ag1
(g1054
(VMetal
p1190
F4.152884854513802
F1.217069015419885
tp1191
tp1192
Rp1193
ag1
(g1054
(VDVD+RW Discs
p1194
F4.14123006833713
F1.3924734445024316
tp1195
tp1196
Rp1197
ag1
(g1054
(VCabaret
p1198
F4.333333333333333
F1.1172407754618563
tp1199
tp1200
Rp1201
ag1
(g1054
(VShoe Care Kits & Sets
p1202
F4.207920792079208
F1.1516668935344831
tp1203
tp1204
Rp1205
ag1
(g1054
(VCigarette Lighter & Parts
p1206
F4.622448979591836
F0.7393966071946142
tp1207
tp1208
Rp1209
ag1
(g1054
(VActive Shirts & Tees
p1210
F4.125
F1.2889105176778741
tp1211
tp1212
Rp1213
ag1
(g1054
(VHard Drive Cases
p1214
F3.784090909090909
F1.4812922568693976
tp1215
tp1216
Rp1217
ag1
(g1054
(VStereo Components
p1218
F3.9210526315789473
F1.023549176187431
tp1219
tp1220
Rp1221
ag1
(g1054
(VGym Totes
p1222
F4.888888888888889
F0.33333333333333337
tp1223
tp1224
Rp1225
ag1
(g1054
(VArt
p1226
F4.625
F0.5175491695067657
tp1227
tp1228
Rp1229
ag1
(g1054
(VTeen Pop
p1230
F4.020829732065687
F1.3057179262158427
tp1231
tp1232
Rp1233
ag1
(g1054
(VLamps
p1234
F4.181329423264907
F1.274102931740328
tp1235
tp1236
Rp1237
ag1
(g1054
(VKids' Backpacks
p1238
F4.436241610738255
F0.9177097495793886
tp1239
tp1240
Rp1241
ag1
(g1054
(VVideo
p1242
F3.288135593220339
F1.4565014570119215
tp1243
tp1244
Rp1245
ag1
(g1054
(VBike Racks & Bags
p1246
F4.454263565891472
F0.8845646499075954
tp1247
tp1248
Rp1249
ag1
(g1054
(VKindle Touch Power Adapters
p1250
F4.467986798679868
F1.0487450384645818
tp1251
tp1252
Rp1253
ag1
(g1054
(VClutches
p1254
F4.380434782608695
F1.036078737136375
tp1255
tp1256
Rp1257
ag1
(g1054
(VPSA Discs
p1258
F4.714285714285714
F0.48795003647426677
tp1259
tp1260
Rp1261
ag1
(g1054
(VRigs & Jigs
p1262
F4.647058823529412
F0.7018882096342189
tp1263
tp1264
Rp1265
ag1
(g1054
(VBoomerangs
p1266
F4.416666666666667
F0.9003366373785199
tp1267
tp1268
Rp1269
ag1
(g1054
(VRope Bags
p1270
F3.0
F1.5811388300841898
tp1271
tp1272
Rp1273
ag1
(g1054
(VCirca Joan & David
p1274
F4.181818181818182
F0.7507571935295484
tp1275
tp1276
Rp1277
ag1
(g1054
(VMulti & Prenatal Vitamins
p1278
F4.297881052308322
F1.0949574568390066
tp1279
tp1280
Rp1281
ag1
(g1054
(VSocks & Hosiery
p1282
F4.2896854425749815
F1.0704621149924887
tp1283
tp1284
Rp1285
ag1
(g1054
(VTubes
p1286
F4.212471131639723
F1.2355039169770017
tp1287
tp1288
Rp1289
ag1
(g1054
(VIndoor Bike Storage
p1290
F4.209677419354839
F1.0314581141884511
tp1291
tp1292
Rp1293
ag1
(g1054
(VMotorcycle Electronics
p1294
F3.9766355140186915
F1.200319162505695
tp1295
tp1296
Rp1297
ag1
(g1054
(VTeddies & Bodysuits
p1298
F3.721518987341772
F1.3581351171476754
tp1299
tp1300
Rp1301
ag1
(g1054
(VRegional Blues
p1302
F4.546583850931677
F0.7241400983149446
tp1303
tp1304
Rp1305
ag1
(g1054
(VCar Accessories
p1306
F3.931547619047619
F1.2665920843639513
tp1307
tp1308
Rp1309
ag1
(g1054
(VRepair Kits
p1310
F4.349143610013175
F1.0995783212786625
tp1311
tp1312
Rp1313
ag1
(g1054
(VJohnston & Murphy
p1314
F4.15
F1.068537389097234
tp1315
tp1316
Rp1317
ag1
(g1054
(VCrackers
p1318
F4.3076923076923075
F0.9473309334313419
tp1319
tp1320
Rp1321
ag1
(g1054
(VCube Erasers
p1322
F5.0
F0.0
tp1323
tp1324
Rp1325
ag1
(g1054
(VTrip-Hop
p1326
F4.204301075268817
F0.9842138750529059
tp1327
tp1328
Rp1329
ag1
(g1054
(VCamera Cranes
p1330
F4.573770491803279
F0.7628677559805203
tp1331
tp1332
Rp1333
ag1
(g1054
(VTaillights
p1334
F4.442330558858502
F0.9392321798003099
tp1335
tp1336
Rp1337
ag1
(g1054
(VJump Ropes
p1338
F4.223097112860892
F1.126284933340844
tp1339
tp1340
Rp1341
ag1
(g1054
(VTeapots & Coffee Servers
p1342
F4.515375153751537
F0.858927193862945
tp1343
tp1344
Rp1345
ag1
(g1054
(VBath Mitts & Cloths
p1346
F4.359249329758713
F1.084916861455158
tp1347
tp1348
Rp1349
ag1
(g1054
(VPersonal Organizers
p1350
F3.9316770186335406
F0.9643116028134675
tp1351
tp1352
Rp1353
ag1
(g1054
(VPicture Hangers
p1354
F4.4
F0.8944271909999161
tp1355
tp1356
Rp1357
ag1
(g1054
(VNeck Gaiters
p1358
F4.705882352941177
F0.5788919281935353
tp1359
tp1360
Rp1361
ag1
(g1054
(VCollars, Harnesses & Leashes
p1362
F4.8
F0.4216370213557839
tp1363
tp1364
Rp1365
ag1
(g1054
(VTV Tuners
p1366
F3.7591623036649215
F1.4813249154381434
tp1367
tp1368
Rp1369
ag1
(g1054
(VOperating Systems
p1370
F3.68
F1.5737428845483836
tp1371
tp1372
Rp1373
ag1
(g1054
(VMotherboards
p1374
F4.343740095087163
F1.1393220791716971
tp1375
tp1376
Rp1377
ag1
(g1054
(VPhone Charms
p1378
F4.074306177260519
F1.282230564907759
tp1379
tp1380
Rp1381
ag1
(g1054
(VBonsai
p1382
F4.0
F1.414213562373095
tp1383
tp1384
Rp1385
ag1
(g1054
(VLingerie Sets
p1386
F3.91015625
F1.250777944195641
tp1387
tp1388
Rp1389
ag1
(g1054
(VInkjet Printer Paper
p1390
F4.627118644067797
F0.7633480040820577
tp1391
tp1392
Rp1393
ag1
(g1054
(VServing Tongs
p1394
F4.580474934036939
F0.8137305732234761
tp1395
tp1396
Rp1397
ag1
(g1054
(VBreeches
p1398
F3.5
F1.760681686165901
tp1399
tp1400
Rp1401
ag1
(g1054
(VGame Boy Color
p1402
F4.312359550561798
F1.1286422745696454
tp1403
tp1404
Rp1405
ag1
(g1054
(VOffice Electronics
p1406
F4.250710777978806
F1.0409681314550183
tp1407
tp1408
Rp1409
ag1
(g1054
(VIndia & Pakistan
p1410
F4.4874715261958995
F0.8935091833423268
tp1411
tp1412
Rp1413
ag1
(g1054
(VDisposable Filters
p1414
F4.428256070640177
F1.0850283066719475
tp1415
tp1416
Rp1417
ag1
(g1054
(VGarlic Tools
p1418
F4.385241138872749
F1.0942729148466914
tp1419
tp1420
Rp1421
ag1
(g1054
(VThermal Management Products
p1422
F4.551724137931035
F0.6316761657092368
tp1423
tp1424
Rp1425
ag1
(g1054
(VBustiers & Corsets
p1426
F4.00554528650647
F1.2330205039751416
tp1427
tp1428
Rp1429
ag1
(g1054
(VPractice Nets
p1430
F4.413793103448276
F0.9047600260000859
tp1431
tp1432
Rp1433
ag1
(g1054
(VCarpet & Vinyl
p1434
F4.1
F1.4491376746189437
tp1435
tp1436
Rp1437
ag1
(g1054
(VFashion
p1438
F4.336546349466776
F1.0350500981830404
tp1439
tp1440
Rp1441
ag1
(g1054
(VPowdered Drink Mixes
p1442
F3.9365079365079363
F1.3304500314654129
tp1443
tp1444
Rp1445
ag1
(g1054
(VCoats & Jackets
p1446
F4.138952164009112
F1.1352829571008556
tp1447
tp1448
Rp1449
ag1
(g1054
(VGame Boy
p1450
F4.204545454545454
F1.1115613405906168
tp1451
tp1452
Rp1453
ag1
(g1054
(VSbicca
p1454
F4.52
F0.5859465277082314
tp1455
tp1456
Rp1457
ag1
(g1054
(VWeapon Stands
p1458
F3.9651162790697674
F1.323521811803685
tp1459
tp1460
Rp1461
ag1
(g1054
(VDental Protectors
p1462
F3.6757894736842105
F1.439402990216219
tp1463
tp1464
Rp1465
ag1
(g1054
(VTuning Pegs
p1466
F4.766666666666667
F0.563483916623878
tp1467
tp1468
Rp1469
ag1
(g1054
(VChicago Blues
p1470
F4.503315649867374
F0.8680751745234906
tp1471
tp1472
Rp1473
ag1
(g1054
(VRock
p1474
F4.235534006978114
F1.0797481417678898
tp1475
tp1476
Rp1477
ag1
(g1054
(VGPS & Navigation
p1478
F4.0873968822476
F1.2371922613282405
tp1479
tp1480
Rp1481
ag1
(g1054
(VCooking & Baking
p1482
F4.446043165467626
F1.043201168135759
tp1483
tp1484
Rp1485
ag1
(g1054
(VKnitting & Crochet
p1486
F4.296296296296297
F1.4362026537637587
tp1487
tp1488
Rp1489
ag1
(g1054
(VChest Protectors
p1490
F4.416666666666667
F0.9003366373785199
tp1491
tp1492
Rp1493
ag1
(g1054
(VKindle Newspapers
p1494
F2.8
F1.6431676725154984
tp1495
tp1496
Rp1497
ag1
(g1054
(VCamera Batteries
p1498
F4.425587026296526
F1.079647520600164
tp1499
tp1500
Rp1501
ag1
(g1054
(VReplacement Screens
p1502
F4.542713567839196
F0.8884639693153892
tp1503
tp1504
Rp1505
ag1
(g1054
(VSolar & Wind Power
p1506
F4.0
F1.1756333702044235
tp1507
tp1508
Rp1509
ag1
(g1054
(VBass
p1510
F3.642297650130548
F1.575329083934781
tp1511
tp1512
Rp1513
ag1
(g1054
(VDeath Metal
p1514
F4.195876288659794
F1.0169314060132486
tp1515
tp1516
Rp1517
ag1
(g1054
(VCabinets
p1518
F4.356481481481482
F1.0287742219046263
tp1519
tp1520
Rp1521
ag1
(g1054
(VIn-Dash DVD & Video Receivers
p1522
F3.921766072811774
F1.2913241726534284
tp1523
tp1524
Rp1525
ag1
(g1054
(VBearings
p1526
F4.544554455445544
F0.9541986425818005
tp1527
tp1528
Rp1529
ag1
(g1054
(VWheels & Tires
p1530
F4.75
F0.4522670168666455
tp1531
tp1532
Rp1533
ag1
(g1054
(VOutdoor Flags
p1534
F4.4
F0.8944271909999159
tp1535
tp1536
Rp1537
ag1
(g1054
(VBuffing & Polishing Pads
p1538
F4.621212121212121
F0.8152206934864913
tp1539
tp1540
Rp1541
ag1
(g1054
(VDesk Pads & Blotters
p1542
F4.428571428571429
F0.7867957924694431
tp1543
tp1544
Rp1545
ag1
(g1054
(VTravel Chargers
p1546
F4.5360524399126
F0.9127795438835048
tp1547
tp1548
Rp1549
ag1
(g1054
(VStep Machines
p1550
F4.015625
F1.188465564004863
tp1551
tp1552
Rp1553
ag1
(g1054
(VKindle Fire HDX 8.9" Covers
p1554
F4.036127167630058
F1.1195518154386062
tp1555
tp1556
Rp1557
ag1
(g1054
(VClassic Big Band
p1558
F4.647887323943662
F0.7190984742677216
tp1559
tp1560
Rp1561
ag1
(g1054
(VOrchestral Jazz
p1562
F4.3431372549019605
F1.0098043927749756
tp1563
tp1564
Rp1565
ag1
(g1054
(VCable Raceways
p1566
F4.533333333333333
F0.6288102248298566
tp1567
tp1568
Rp1569
ag1
(g1054
(VHoes
p1570
F3.25
F1.2154310870109941
tp1571
tp1572
Rp1573
ag1
(g1054
(VJazz
p1574
F4.557308689282092
F0.8307593007144914
tp1575
tp1576
Rp1577
ag1
(g1054
(VXbox One
p1578
F3.8757559098405716
F1.3835273305506548
tp1579
tp1580
Rp1581
ag1
(g1054
(VHoodies
p1582
F4.344588744588744
F1.007275818775495
tp1583
tp1584
Rp1585
ag1
(g1054
(VLuggage
p1586
F4.41726618705036
F0.9000747197287436
tp1587
tp1588
Rp1589
ag1
(g1054
(VHeadbands
p1590
F4.209580838323354
F1.156427840075375
tp1591
tp1592
Rp1593
ag1
(g1054
(VPullers
p1594
F4.62962962962963
F0.8533241613762846
tp1595
tp1596
Rp1597
ag1
(g1054
(VInstructional
p1598
F3.6
F1.429840705968481
tp1599
tp1600
Rp1601
ag1
(g1054
(VSoil Test Kits
p1602
F3.9642857142857144
F1.3466595945123117
tp1603
tp1604
Rp1605
ag1
(g1054
(VBasketball
p1606
F4.45303867403315
F0.7976795596858548
tp1607
tp1608
Rp1609
ag1
(g1054
(VCat Flea Powders
p1610
F4.476190476190476
F0.8728715609439693
tp1611
tp1612
Rp1613
ag1
(g1054
(VDefibrillators
p1614
F4.909090909090909
F0.30151134457776363
tp1615
tp1616
Rp1617
ag1
(g1054
(VConcealers & Neutralizers
p1618
F3.9597156398104265
F1.2812219695795106
tp1619
tp1620
Rp1621
ag1
(g1054
(VTank Tops
p1622
F4.136904761904762
F1.1183036448882675
tp1623
tp1624
Rp1625
ag1
(g1054
(VAfrica
p1626
F4.5246913580246915
F0.7657304172163452
tp1627
tp1628
Rp1629
ag1
(g1054
(VTactical Vests
p1630
F4.345679012345679
F0.9512127165247317
tp1631
tp1632
Rp1633
ag1
(g1054
(VCO2 Systems
p1634
F4.391304347826087
F0.98807114368361
tp1635
tp1636
Rp1637
ag1
(g1054
(VTeasers
p1638
F4.8125
F0.5439056290693574
tp1639
tp1640
Rp1641
ag1
(g1054
(VBaits & Attractants
p1642
F4.321428571428571
F1.1880133254200733
tp1643
tp1644
Rp1645
ag1
(g1054
(VBraisers
p1646
F4.7272727272727275
F0.6466697906828632
tp1647
tp1648
Rp1649
ag1
(g1054
(VVampires
p1650
F4.2
F1.0327955589886444
tp1651
tp1652
Rp1653
ag1
(g1054
(VRoots Rock
p1654
F4.5058201058201055
F0.8375572263638531
tp1655
tp1656
Rp1657
ag1
(g1054
(VIndex Dividers
p1658
F4.340501792114695
F0.8317149977722081
tp1659
tp1660
Rp1661
ag1
(g1054
(VSubject Notebooks
p1662
F4.07258064516129
F0.9725783944139829
tp1663
tp1664
Rp1665
ag1
(g1054
(VMotets
p1666
F4.39622641509434
F1.025438417336879
tp1667
tp1668
Rp1669
ag1
(g1054
(VRosin
p1670
F4.5
F1.0
tp1671
tp1672
Rp1673
ag1
(g1054
(VBedtime & Dreaming
p1674
F4.670454545454546
F0.5407868024704632
tp1675
tp1676
Rp1677
ag1
(g1054
(VCotton & Swabs
p1678
F4.457142857142857
F0.9583457106051013
tp1679
tp1680
Rp1681
ag1
(g1054
(VDVD Viewing & Burning
p1682
F3.1666666666666665
F1.7573375583870183
tp1683
tp1684
Rp1685
ag1
(g1054
(VHandheld Pool Vacuums
p1686
F4.8
F0.4472135954999579
tp1687
tp1688
Rp1689
ag1
(g1054
(VGauze & Pads
p1690
F4.85
F0.48936048492959283
tp1691
tp1692
Rp1693
ag1
(g1054
(VVideo Games & Accessories
p1694
F3.9051851851851853
F1.2464519560149916
tp1695
tp1696
Rp1697
ag1
(g1054
(VCue Sticks & Accessories
p1698
F4.666666666666667
F0.5702659485122009
tp1699
tp1700
Rp1701
ag1
(g1054
(VWater Shoes
p1702
F4.567669172932331
F0.8671835889434824
tp1703
tp1704
Rp1705
ag1
(g1054
(VContemporary Fiction
p1706
F3.9722222222222223
F1.0819588350001679
tp1707
tp1708
Rp1709
ag1
(g1054
(VLuggage & Travel Gear
p1710
F4.45045045045045
F0.9316528688181388
tp1711
tp1712
Rp1713
ag1
(g1054
(VTributes
p1714
F3.5
F1.5045385882842497
tp1715
tp1716
Rp1717
ag1
(g1054
(VBCBGeneration
p1718
F4.238095238095238
F1.338086764928265
tp1719
tp1720
Rp1721
ag1
(g1054
(VIndex Card Filing
p1722
F5.0
F0.0
tp1723
tp1724
Rp1725
ag1
(g1054
(VHood Scoops & Vents
p1726
F4.75
F0.5155800469472481
tp1727
tp1728
Rp1729
ag1
(g1054
(VeBook Readers & Accessories
p1730
F4.316639741518578
F1.091823102564984
tp1731
tp1732
Rp1733
ag1
(g1054
(VWired Headsets
p1734
F3.848354792560801
F1.344030883377106
tp1735
tp1736
Rp1737
ag1
(g1054
(VCitrus Juicers
p1738
F4.1360103626943
F1.2120872607936848
tp1739
tp1740
Rp1741
ag1
(g1054
(VTrim
p1742
F4.578616352201258
F0.837292561113181
tp1743
tp1744
Rp1745
ag1
(g1054
(VLockets
p1746
F4.275
F0.9867714774546072
tp1747
tp1748
Rp1749
ag1
(g1054
(VNorthside
p1750
F4.108695652173913
F1.286308428014322
tp1751
tp1752
Rp1753
ag1
(g1054
(VSun
p1754
F4.141475211608222
F1.149277785318788
tp1755
tp1756
Rp1757
ag1
(g1054
(VSpoons
p1758
F4.5223496372571965
F0.9025706641339141
tp1759
tp1760
Rp1761
ag1
(g1054
(VAlgeria
p1762
F4.3076923076923075
F0.9607689228305228
tp1763
tp1764
Rp1765
ag1
(g1054
(VOffice Suites
p1766
F4.0
F1.2909944487358058
tp1767
tp1768
Rp1769
ag1
(g1054
(VOutdoor
p1770
F4.406826568265683
F1.00372609152882
tp1771
tp1772
Rp1773
ag1
(g1054
(VBikes
p1774
F4.0945273631840795
F1.0844445124106223
tp1775
tp1776
Rp1777
ag1
(g1054
(VHard Drive Enclosures
p1778
F4.215859030837004
F1.152954856182039
tp1779
tp1780
Rp1781
ag1
(g1054
(VWater Pumps
p1782
F4.523809523809524
F0.9807674351775563
tp1783
tp1784
Rp1785
ag1
(g1054
(VV Belts
p1786
F5.0
F0.0
tp1787
tp1788
Rp1789
ag1
(g1054
(VFirst Contact
p1790
F4.545454545454546
F0.8201995322647243
tp1791
tp1792
Rp1793
ag1
(g1054
(VSpace Heaters & Accessories
p1794
F4.6
F0.8944271909999159
tp1795
tp1796
Rp1797
ag1
(g1054
(VGas Tank Doors
p1798
F4.45
F0.9445132413883326
tp1799
tp1800
Rp1801
ag1
(g1054
(VNets
p1802
F4.7272727272727275
F0.5740604972870496
tp1803
tp1804
Rp1805
ag1
(g1054
(VPet Supplies
p1806
F4.229744798398338
F1.1758194425001731
tp1807
tp1808
Rp1809
ag1
(g1054
(VGoggles
p1810
F4.1
F1.1481057086116755
tp1811
tp1812
Rp1813
ag1
(g1054
(VAthletic Socks
p1814
F4.364533696392104
F1.01614217192923
tp1815
tp1816
Rp1817
ag1
(g1054
(VNail Treatments
p1818
F4.213296398891967
F1.236680342787495
tp1819
tp1820
Rp1821
ag1
(g1054
(VNotebooks & Writing Pads
p1822
F4.4362041467304625
F0.7945749098644309
tp1823
tp1824
Rp1825
ag1
(g1054
(VHybrid Bikes
p1826
F4.522388059701493
F0.8044988832736826
tp1827
tp1828
Rp1829
ag1
(g1054
(VFolding Bikes
p1830
F4.571428571428571
F0.646206172658864
tp1831
tp1832
Rp1833
ag1
(g1054
(VClassical & Nylon-String Guitars
p1834
F4.75
F0.45226701686664544
tp1835
tp1836
Rp1837
ag1
(g1054
(VRhumba
p1838
F4.611111111111111
F0.5016313257045503
tp1839
tp1840
Rp1841
ag1
(g1054
(VSwimwear
p1842
F4.228571428571429
F1.0314385809239865
tp1843
tp1844
Rp1845
ag1
(g1054
(VPatch Cables
p1846
F4.8
F0.4472135954999579
tp1847
tp1848
Rp1849
ag1
(g1054
(VToys & Games
p1850
F4.353076508297885
F0.9954407061597847
tp1851
tp1852
Rp1853
ag1
(g1054
(VTimex
p1854
F4.365839909808343
F1.0426791758779788
tp1855
tp1856
Rp1857
ag1
(g1054
(VChains
p1858
F4.590038314176245
F0.8118387916292773
tp1859
tp1860
Rp1861
ag1
(g1054
(VChairs
p1862
F4.282937365010799
F1.1145779442927553
tp1863
tp1864
Rp1865
ag1
(g1054
(VWii U
p1866
F4.3788927335640135
F1.0887979247238593
tp1867
tp1868
Rp1869
ag1
(g1054
(VWaxing Kits
p1870
F3.7335640138408306
F1.4936025950813803
tp1871
tp1872
Rp1873
ag1
(g1054
(VNecklaces & Pendants
p1874
F4.454545454545454
F0.6875516509523287
tp1875
tp1876
Rp1877
ag1
(g1054
(VTire & Wheel Tools
p1878
F4.0
F0.7071067811865476
tp1879
tp1880
Rp1881
ag1
(g1054
(VSuspension Forks
p1882
F4.4
F0.5477225575051662
tp1883
tp1884
Rp1885
ag1
(g1054
(VNutrition Bars
p1886
F4.157762237762237
F1.1468823580600853
tp1887
tp1888
Rp1889
ag1
(g1054
(VWoks & Stir-Fry Pans
p1890
F4.31767955801105
F1.1756546120359292
tp1891
tp1892
Rp1893
ag1
(g1054
(VE
p1894
F4.223756906077348
F1.0432153717870452
tp1895
tp1896
Rp1897
ag1
(g1054
(VSebago
p1898
F4.2330827067669174
F1.1206546926138605
tp1899
tp1900
Rp1901
ag1
(g1054
(VCar Sports Racks
p1902
F4.542857142857143
F0.780002154705061
tp1903
tp1904
Rp1905
ag1
(g1054
(VJack Rogers
p1906
F4.538461538461538
F1.126601424298216
tp1907
tp1908
Rp1909
ag1
(g1054
(VMIDI Cables
p1910
F3.761904761904762
F1.5134319246256802
tp1911
tp1912
Rp1913
ag1
(g1054
(VTable Saw Accessories
p1914
F4.35509138381201
F1.0830935744359707
tp1915
tp1916
Rp1917
ag1
(g1054
(VConditioners
p1918
F4.13776608466874
F1.1489527881181352
tp1919
tp1920
Rp1921
ag1
(g1054
(VKegs & Kegging
p1922
F4.52542372881356
F0.8169675574358095
tp1923
tp1924
Rp1925
ag1
(g1054
(VCalypso
p1926
F4.514018691588785
F0.8396370058150849
tp1927
tp1928
Rp1929
ag1
(g1054
(VPhoto Paper
p1930
F4.753731343283582
F0.6640762462899712
tp1931
tp1932
Rp1933
ag1
(g1054
(VJacks
p1934
F4.67379679144385
F0.6764137098487659
tp1935
tp1936
Rp1937
ag1
(g1054
(VBrad Nailers
p1938
F4.530821917808219
F0.9716295214435589
tp1939
tp1940
Rp1941
ag1
(g1054
(VT
p1942
F4.7272727272727275
F0.6466697906828633
tp1943
tp1944
Rp1945
ag1
(g1054
(VProtective Screens
p1946
F4.388888888888889
F0.8498365855987976
tp1947
tp1948
Rp1949
ag1
(g1054
(VRakes
p1950
F4.475728155339806
F0.7520515756481062
tp1951
tp1952
Rp1953
ag1
(g1054
(VFurnishings
p1954
F4.368421052631579
F0.9704012163151329
tp1955
tp1956
Rp1957
ag1
(g1054
(VBreastfeeding
p1958
F3.9411764705882355
F1.3906198364081266
tp1959
tp1960
Rp1961
ag1
(g1054
(VBath Pearls & Flakes
p1962
F4.5
F1.0690449676496976
tp1963
tp1964
Rp1965
ag1
(g1054
(VChildren's
p1966
F4.494623655913978
F0.7463484428401841
tp1967
tp1968
Rp1969
ag1
(g1054
(VStick Vacuums & Electric Brooms
p1970
F4.081285444234404
F1.243806196771061
tp1971
tp1972
Rp1973
ag1
(g1054
(VWeapons
p1974
F4.195915279878971
F1.048504916807151
tp1975
tp1976
Rp1977
ag1
(g1054
(VAdapter Rings
p1978
F4.486042692939245
F0.9984621092964073
tp1979
tp1980
Rp1981
ag1
(g1054
(VXOXO
p1982
F4.087719298245614
F1.227746459267846
tp1983
tp1984
Rp1985
ag1
(g1054
(VFive-Stone Jewelry
p1986
F4.54
F0.885483840989242
tp1987
tp1988
Rp1989
ag1
(g1054
(VSCSI Port Cards
p1990
F3.9794238683127574
F1.3831044109964323
tp1991
tp1992
Rp1993
ag1
(g1054
(VShort Forms
p1994
F4.658823529411765
F0.732785637083565
tp1995
tp1996
Rp1997
ag1
(g1054
(VLoafers & Slip-Ons
p1998
F4.009174311926605
F1.1917050694654412
tp1999
tp2000
Rp2001
ag1
(g1054
(VCordial & Liqueur Glasses
p2002
F4.916666666666667
F0.2886751345948129
tp2003
tp2004
Rp2005
ag1
(g1054
(VCasters
p2006
F4.857142857142857
F0.5345224838248489
tp2007
tp2008
Rp2009
ag1
(g1054
(VOutdoor Storage
p2010
F4.3
F1.2516655570345725
tp2011
tp2012
Rp2013
ag1
(g1054
(VFarm & Ranch
p2014
F4.3125
F0.7932002689527196
tp2015
tp2016
Rp2017
ag1
(g1054
(VLaptop Replacement Parts
p2018
F4.466666666666667
F0.9371024061116424
tp2019
tp2020
Rp2021
ag1
(g1054
(VPunch Ladles
p2022
F4.8
F0.4472135954999579
tp2023
tp2024
Rp2025
ag1
(g1054
(VWatch Bands
p2026
F4.423076923076923
F1.0115095677628945
tp2027
tp2028
Rp2029
ag1
(g1054
(VBalls
p2030
F4.358620689655172
F1.0252090712858246
tp2031
tp2032
Rp2033
ag1
(g1054
(VParty Supplies
p2034
F3.6857142857142855
F1.23124586762946
tp2035
tp2036
Rp2037
ag1
(g1054
(VSalt & Salt Substitutes
p2038
F4.2745098039215685
F1.1845409469081096
tp2039
tp2040
Rp2041
ag1
(g1054
(VCalendars
p2042
F3.5295629820051415
F1.523653086397423
tp2043
tp2044
Rp2045
ag1
(g1054
(VSnow Removal
p2046
F4.285714285714286
F1.1387288073563857
tp2047
tp2048
Rp2049
ag1
(g1054
(VCompression Pants
p2050
F4.15
F0.8750939799154206
tp2051
tp2052
Rp2053
ag1
(g1054
(VHard Rock & Metal
p2054
F3.8227848101265822
F1.2481729588285932
tp2055
tp2056
Rp2057
ag1
(g1054
(VTheatrical, Incidental & Program Music
p2058
F4.535412605588045
F0.8604970336907274
tp2059
tp2060
Rp2061
ag1
(g1054
(VControl Panties
p2062
F3.803921568627451
F1.2832276085978256
tp2063
tp2064
Rp2065
ag1
(g1054
(VChain Tension Idlers
p2066
F4.2272727272727275
F1.0203555954301136
tp2067
tp2068
Rp2069
ag1
(g1054
(VJewelry Rolls
p2070
F4.56
F0.8843307166024093
tp2071
tp2072
Rp2073
ag1
(g1054
(VSpecial Occasion Accessories
p2074
F4.294117647058823
F1.1599949289950011
tp2075
tp2076
Rp2077
ag1
(g1054
(VBuffing & Polishing Compounds
p2078
F4.0
F1.4142135623730951
tp2079
tp2080
Rp2081
ag1
((lp2082
S'categories[0]'
p2083
aS'avg(overall)'
p2084
aS'stddev_samp(CAST(overall AS DOUBLE))'
p2085
a(VSweat Wristbands
p2086
F4.363636363636363
F0.9666751718903612
tp2087
tp2088
Rp2089
ag1
(g2082
(VBoomboxes
p2090
F3.818330605564648
F1.3579834601944278
tp2091
tp2092
Rp2093
ag1
(g2082
(VNail Art Equipment
p2094
F4.261064593301436
F1.1294407871662084
tp2095
tp2096
Rp2097
ag1
(g2082
(VPumps
p2098
F4.023346303501945
F1.1656877030369983
tp2099
tp2100
Rp2101
ag1
(g2082
(VDress
p2102
F4.409326424870466
F0.8975174453830072
tp2103
tp2104
Rp2105
ag1
(g2082
(VProjector Bags & Cases
p2106
F4.285714285714286
F1.0131411680782825
tp2107
tp2108
Rp2109
ag1
(g2082
(VWatering Cans
p2110
F4.217391304347826
F1.3127528930087211
tp2111
tp2112
Rp2113
ag1
(g2082
(VDice
p2114
F4.827586206896552
F0.38442587221924474
tp2115
tp2116
Rp2117
ag1
(g2082
(VDemons & Devils
p2118
F3.888888888888889
F1.763834207376394
tp2119
tp2120
Rp2121
ag1
(g2082
(VPacking Materials
p2122
F4.465714285714285
F0.8641055892021998
tp2123
tp2124
Rp2125
ag1
(g2082
(VB
p2126
F4.308840864440079
F1.0395578176278013
tp2127
tp2128
Rp2129
ag1
(g2082
(VExercise Bands
p2130
F4.476851851851852
F0.8595028320111975
tp2131
tp2132
Rp2133
ag1
(g2082
(VEarmuffs
p2134
F4.069672131147541
F1.1755667117206612
tp2135
tp2136
Rp2137
ag1
(g2082
(VOld School
p2138
F4.445843828715366
F0.923986808354744
tp2139
tp2140
Rp2141
ag1
(g2082
(VPajama Sets
p2142
F4.444444444444445
F0.8915558282417285
tp2143
tp2144
Rp2145
ag1
(g2082
(VOpera & Classical Vocal
p2146
F4.217391304347826
F0.902346523798844
tp2147
tp2148
Rp2149
ag1
(g2082
(VJerky & Dried Meats
p2150
F4.4
F1.3416407864998738
tp2151
tp2152
Rp2153
ag1
(g2082
(VPoetry
p2154
F3.9285714285714284
F1.071611705960535
tp2155
tp2156
Rp2157
ag1
(g2082
(VThermometers & Timers
p2158
F4.116072500300084
F1.292176007593013
tp2159
tp2160
Rp2161
ag1
(g2082
(VBaby
p2162
F4.2159594875495765
F1.143163776339758
tp2163
tp2164
Rp2165
ag1
(g2082
(VBatteries
p2166
F4.168482604854655
F1.2794322462898629
tp2167
tp2168
Rp2169
ag1
(g2082
(VNails
p2170
F4.293946839401385
F1.118250376761327
tp2171
tp2172
Rp2173
ag1
(g2082
(VFalse Nails
p2174
F4.145416227608008
F1.2091129714950761
tp2175
tp2176
Rp2177
ag1
(g2082
(VRequiems
p2178
F4.527704485488127
F0.940644694632715
tp2179
tp2180
Rp2181
ag1
(g2082
(VBags
p2182
F4.534355179704017
F0.907914234191134
tp2183
tp2184
Rp2185
ag1
(g2082
(VBand & Music Fan
p2186
F4.275449101796407
F1.015925423329518
tp2187
tp2188
Rp2189
ag1
(g2082
(VShoelaces
p2190
F4.358056265984655
F1.0882497389211354
tp2191
tp2192
Rp2193
ag1
(g2082
(VKayak & Canoe Racks
p2194
F4.359477124183006
F0.970718528536623
tp2195
tp2196
Rp2197
ag1
(g2082
(VAppalachian
p2198
F4.666666666666667
F0.5163977794943223
tp2199
tp2200
Rp2201
ag1
(g2082
(VTanks & Camis
p2202
F4.444444444444445
F1.3333333333333333
tp2203
tp2204
Rp2205
ag1
(g2082
(VShafts
p2206
F4.4
F0.894427190999916
tp2207
tp2208
Rp2209
ag1
(g2082
(VTexturizers
p2210
F4.136363636363637
F1.249947144759908
tp2211
tp2212
Rp2213
ag1
(g2082
(VPlants, Seeds & Bulbs
p2214
F4.6
F0.7544738360147218
tp2215
tp2216
Rp2217
ag1
(g2082
(VChargers & Adapters
p2218
F4.615743138270326
F0.8476977075691063
tp2219
tp2220
Rp2221
ag1
(g2082
(VBarbells
p2222
F4.306818181818182
F1.117858734577057
tp2223
tp2224
Rp2225
ag1
(g2082
(VBottled Ink
p2226
F4.610169491525424
F0.9287913754192518
tp2227
tp2228
Rp2229
ag1
(g2082
(VMerengue
p2230
F4.256880733944954
F1.1336900559903083
tp2231
tp2232
Rp2233
ag1
(g2082
(VMixed Spices & Seasonings
p2234
F4.157894736842105
F1.213953957333768
tp2235
tp2236
Rp2237
ag1
(g2082
(VHydraulic Oils
p2238
F4.615384615384615
F0.8148420775438836
tp2239
tp2240
Rp2241
ag1
(g2082
(VForms, Recordkeeping & Money Handling
p2242
F4.576388888888889
F0.7807102836574827
tp2243
tp2244
Rp2245
ag1
(g2082
(VPutters
p2246
F4.26984126984127
F0.807352287625325
tp2247
tp2248
Rp2249
ag1
(g2082
(VLiterature & Fiction
p2250
F4.321428571428571
F0.8629652337776967
tp2251
tp2252
Rp2253
ag1
(g2082
(VExternal Components
p2254
F4.045358297113563
F1.3283215575203517
tp2255
tp2256
Rp2257
ag1
(g2082
(VDress Shirts
p2258
F4.283040935672514
F1.0555441306128583
tp2259
tp2260
Rp2261
ag1
(g2082
(VCoffee, Tea & Espresso
p2262
F4.220108695652174
F1.1706262850824547
tp2263
tp2264
Rp2265
ag1
(g2082
(VHenleys
p2266
F4.011904761904762
F1.1030521470053878
tp2267
tp2268
Rp2269
ag1
(g2082
(VCalculator Accessories
p2270
F4.430769230769231
F0.9349002414902144
tp2271
tp2272
Rp2273
ag1
(g2082
(VDiopters
p2274
F4.409836065573771
F0.9785116952867792
tp2275
tp2276
Rp2277
ag1
(g2082
(VGriffen All-Weather Wicker
p2278
F4.328947368421052
F0.7897367982602278
tp2279
tp2280
Rp2281
ag1
(g2082
(VGolf Carts
p2282
F4.583333333333333
F0.6130958528832949
tp2283
tp2284
Rp2285
ag1
(g2082
(VBaby Products
p2286
F3.857142857142857
F1.1952286093343936
tp2287
tp2288
Rp2289
ag1
(g2082
(VCreamers
p2290
F4.2
F1.3890326722960415
tp2291
tp2292
Rp2293
ag1
(g2082
(VSuper-Automatic Espresso Machines
p2294
F4.275510204081633
F1.22604732618655
tp2295
tp2296
Rp2297
ag1
(g2082
(VExpanding Wallets
p2298
F4.1
F0.8877349798759833
tp2299
tp2300
Rp2301
ag1
(g2082
(VChina & Effect
p2302
F4.857142857142857
F0.3779644730092273
tp2303
tp2304
Rp2305
ag1
(g2082
(VCars, Trains & Things That Go
p2306
F4.625
F0.5
tp2307
tp2308
Rp2309
ag1
(g2082
(VMadagascar
p2310
F4.6
F0.8944271909999159
tp2311
tp2312
Rp2313
ag1
(g2082
(VCompressed Air Dusters
p2314
F4.191142191142191
F1.1921926124001703
tp2315
tp2316
Rp2317
ag1
(g2082
(VGrowth Formula
p2318
F4.098214285714286
F1.3358577093952482
tp2319
tp2320
Rp2321
ag1
(g2082
(VAmazon Curated Collection
p2322
F4.373159057437408
F1.0140430453590132
tp2323
tp2324
Rp2325
ag1
(g2082
(VThemes
p2326
F3.5966666666666667
F1.5463853772957366
tp2327
tp2328
Rp2329
ag1
(g2082
(VMules & Clogs
p2330
F3.9869565217391303
F1.2693237713559664
tp2331
tp2332
Rp2333
ag1
(g2082
(VMailers
p2334
F4.479381443298969
F0.7972117690305844
tp2335
tp2336
Rp2337
ag1
(g2082
(VProtectants
p2338
F4.386666666666667
F0.9711143408801372
tp2339
tp2340
Rp2341
ag1
(g2082
(VDark Circle Treatments
p2342
F3.8402948402948405
F1.372333208452879
tp2343
tp2344
Rp2345
ag1
(g2082
(VTape Decks
p2346
F3.9368421052631577
F1.2274391809328633
tp2347
tp2348
Rp2349
ag1
(g2082
(VJumpsuits, Rompers & Overalls
p2350
F3.9037433155080214
F1.2578086843582426
tp2351
tp2352
Rp2353
ag1
(g2082
(VSafety & First Aid Supplies
p2354
F4.725
F0.7156671622894872
tp2355
tp2356
Rp2357
ag1
(g2082
(VCarrying Cases
p2358
F4.5
F0.7071067811865474
tp2359
tp2360
Rp2361
ag1
(g2082
(VBowling Totes
p2362
F4.571428571428571
F1.1338934190276817
tp2363
tp2364
Rp2365
ag1
(g2082
(VBoat Engine Parts
p2366
F3.7142857142857144
F1.3801311186847085
tp2367
tp2368
Rp2369
ag1
(g2082
(VChargers
p2370
F4.174002229654404
F1.2592689400849775
tp2371
tp2372
Rp2373
ag1
(g2082
(VHipsters
p2374
F4.222222222222222
F1.0814366702193208
tp2375
tp2376
Rp2377
ag1
(g2082
(VMiniSD Cards
p2378
F4.666666666666667
F0.8129847513997934
tp2379
tp2380
Rp2381
ag1
(g2082
(VCuticle Removers
p2382
F4.35064935064935
F1.085384163935489
tp2383
tp2384
Rp2385
ag1
(g2082
(VSets
p2386
F4.45
F1.190974832912761
tp2387
tp2388
Rp2389
ag1
(g2082
(VMini Donut Makers
p2390
F4.267605633802817
F0.9993961959799705
tp2391
tp2392
Rp2393
ag1
(g2082
(VUSB-to-VGA Adapters
p2394
F4.379545454545455
F1.0774304084000614
tp2395
tp2396
Rp2397
ag1
(g2082
(VParking Gadgets
p2398
F4.529411764705882
F0.7998161553463028
tp2399
tp2400
Rp2401
ag1
(g2082
(VSlips
p2402
F4.375527426160337
F0.9809562126886134
tp2403
tp2404
Rp2405
ag1
(g2082
(VShoe Care & Accessories
p2406
F4.3469910371318825
F1.0924950442516597
tp2407
tp2408
Rp2409
ag1
(g2082
(VNight Out & Cocktail
p2410
F3.904513888888889
F1.2823314252974913
tp2411
tp2412
Rp2413
ag1
(g2082
(VCharcoal Companion
p2414
F3.8461538461538463
F1.5730095277394138
tp2415
tp2416
Rp2417
ag1
(g2082
(VHand Creams & Lotions
p2418
F4.472249269717624
F0.9479428348354861
tp2419
tp2420
Rp2421
ag1
(g2082
(VMen's Deodorants & Antiperspirants
p2422
F4.317647058823529
F1.0326253944811807
tp2423
tp2424
Rp2425
ag1
(g2082
(VExternal Solid State Drives
p2426
F4.285714285714286
F1.2249546418600952
tp2427
tp2428
Rp2429
ag1
(g2082
(VScrub Sets
p2430
F3.725
F1.373376686132606
tp2431
tp2432
Rp2433
ag1
(g2082
(VScotts Miracle-Gro
p2434
F4.333333333333333
F1.0
tp2435
tp2436
Rp2437
ag1
(g2082
(VStreet, Surf & Skate
p2438
F4.605633802816901
F0.764925266927367
tp2439
tp2440
Rp2441
ag1
(g2082
(VBrake Cleaners
p2442
F4.5
F0.7977240352174656
tp2443
tp2444
Rp2445
ag1
(g2082
(VRings
p2446
F4.676470588235294
F0.638207159076591
tp2447
tp2448
Rp2449
ag1
(g2082
(VSpike Wrenches
p2450
F4.555555555555555
F0.5270462766947298
tp2451
tp2452
Rp2453
ag1
(g2082
(VProgressive
p2454
F4.298794264839411
F1.0367442756745255
tp2455
tp2456
Rp2457
ag1
(g2082
(VVocal Non-Opera
p2458
F4.601923076923077
F0.8358513905341977
tp2459
tp2460
Rp2461
ag1
(g2082
(VTravel
p2462
F3.8902612826603327
F1.3753068023245638
tp2463
tp2464
Rp2465
ag1
(g2082
(VGirl Groups
p2466
F4.458064516129032
F0.9803157121563307
tp2467
tp2468
Rp2469
ag1
(g2082
(VTrack Jackets
p2470
F4.32258064516129
F0.9447079539622654
tp2471
tp2472
Rp2473
ag1
(g2082
(VExternal Battery Packs
p2474
F4.094117647058823
F1.2688908674954853
tp2475
tp2476
Rp2477
ag1
(g2082
(VRefills
p2478
F3.8
F1.3038404810405297
tp2479
tp2480
Rp2481
ag1
(g2082
(VSauces, Gravies & Marinades
p2482
F4.8
F0.632455532033676
tp2483
tp2484
Rp2485
ag1
(g2082
(VGhana
p2486
F4.857142857142857
F0.37796447300922725
tp2487
tp2488
Rp2489
ag1
(g2082
(VWebcams
p2490
F3.9217375695566328
F1.2899193175001635
tp2491
tp2492
Rp2493
ag1
(g2082
(VExperimental Rap
p2494
F4.428634555899249
F0.9304326405838814
tp2495
tp2496
Rp2497
ag1
(g2082
(VMedicine Balls
p2498
F4.408163265306122
F0.9122837671426608
tp2499
tp2500
Rp2501
ag1
(g2082
(VOveralls & Coveralls
p2502
F4.443298969072165
F0.9125179469119641
tp2503
tp2504
Rp2505
ag1
(g2082
(VMelon Ballers
p2506
F3.7755102040816326
F1.2460822960123357
tp2507
tp2508
Rp2509
ag1
(g2082
(VInflation Devices & Accessories
p2510
F4.426470588235294
F0.9320018513824918
tp2511
tp2512
Rp2513
ag1
(g2082
(VIrish
p2514
F4.8
F0.8944271909999159
tp2515
tp2516
Rp2517
ag1
(g2082
(VMeal Replacement Drinks
p2518
F4.287037037037037
F1.1278208740084048
tp2519
tp2520
Rp2521
ag1
(g2082
(VSTEVEN by Steve Madden
p2522
F4.133333333333334
F1.136641554311871
tp2523
tp2524
Rp2525
ag1
(g2082
(VSenegal & Gambia
p2526
F4.764705882352941
F0.43723731609760313
tp2527
tp2528
Rp2529
ag1
(g2082
(VBusiness Accounting
p2530
F2.8
F1.8135294011647258
tp2531
tp2532
Rp2533
ag1
(g2082
(VTeen & Young Adult
p2534
F4.260869565217392
F0.8546547739343037
tp2535
tp2536
Rp2537
ag1
(g2082
(VChamber Music
p2538
F4.419383003492433
F0.9967442038210069
tp2539
tp2540
Rp2541
ag1
(g2082
(VBunion Pads
p2542
F3.827067669172932
F1.4434348669348271
tp2543
tp2544
Rp2545
ag1
(g2082
(VWall Chargers
p2546
F4.181013676588898
F1.274761801742412
tp2547
tp2548
Rp2549
ag1
(g2082
(VMattresses & Box Springs
p2550
F4.361889511609287
F1.0718050676835165
tp2551
tp2552
Rp2553
ag1
(g2082
(VHeadlight-Taillight Combinations
p2554
F4.190611664295875
F1.1262587367665355
tp2555
tp2556
Rp2557
ag1
(g2082
(VBoot Shop
p2558
F4.18796992481203
F1.1088512752410857
tp2559
tp2560
Rp2561
ag1
(g2082
(VPlayStation 2
p2562
F3.5
F1.4368424162141993
tp2563
tp2564
Rp2565
ag1
(g2082
(VActive Top & Bottom Sets
p2566
F4.052631578947368
F1.1772701101619383
tp2567
tp2568
Rp2569
ag1
(g2082
(VLabels, Indexes & Stamps
p2570
F4.5
F1.2692955176439846
tp2571
tp2572
Rp2573
ag1
(g2082
(VPeru
p2574
F4.5
F0.7969536593398233
tp2575
tp2576
Rp2577
ag1
(g2082
(VMariachi
p2578
F3.5454545454545454
F1.3684762594679063
tp2579
tp2580
Rp2581
ag1
(g2082
(VStabilizers
p2582
F4.705882352941177
F0.7717436331412897
tp2583
tp2584
Rp2585
ag1
(g2082
(VComputers & Accessories
p2586
F4.0359231411862995
F1.2675046274905104
tp2587
tp2588
Rp2589
ag1
(g2082
(VPop & Contemporary
p2590
F4.476190476190476
F0.9276665361955704
tp2591
tp2592
Rp2593
ag1
(g2082
(VCreams, Gels & Lotions
p2594
F4.063542494042891
F1.159744753093448
tp2595
tp2596
Rp2597
ag1
(g2082
(VBreath Fresheners
p2598
F4.299899699097292
F1.106447873855859
tp2599
tp2600
Rp2601
ag1
(g2082
(VPlus-Size
p2602
F3.9215017064846416
F1.209543301179658
tp2603
tp2604
Rp2605
ag1
(g2082
(VNight Out & Special Occasion
p2606
F4.088050314465409
F1.1987567050235914
tp2607
tp2608
Rp2609
ag1
(g2082
(VService Plans
p2610
F4.460122699386503
F1.070728640216364
tp2611
tp2612
Rp2613
ag1
(g2082
(VPraise & Worship
p2614
F4.6344537815126055
F0.7081893600373504
tp2615
tp2616
Rp2617
ag1
(g2082
(VDearfoams
p2618
F3.878504672897196
F1.2612705448483306
tp2619
tp2620
Rp2621
ag1
(g2082
(VBike Horns
p2622
F4.315151515151515
F1.022944462443901
tp2623
tp2624
Rp2625
ag1
(g2082
(VAmazon Financing Offers in Patio, Lawn & Garden
p2626
F2.8
F1.472555959083246
tp2627
tp2628
Rp2629
ag1
(g2082
(VDetectives
p2630
F4.071428571428571
F1.0908232993401246
tp2631
tp2632
Rp2633
ag1
(g2082
(VJewelry Outlet
p2634
F4.153846153846154
F1.2019615378461737
tp2635
tp2636
Rp2637
ag1
(g2082
(VFenugreek
p2638
F4.857142857142857
F0.37796447300922725
tp2639
tp2640
Rp2641
ag1
(g2082
(VBuilding Toys
p2642
F4.333333333333333
F1.2110601416389968
tp2643
tp2644
Rp2645
ag1
(g2082
(VAlarms & Clocks
p2646
F3.9000420875420874
F1.4333960680326643
tp2647
tp2648
Rp2649
ag1
(g2082
(VBlades
p2650
F4.284653465346534
F1.1045303256858652
tp2651
tp2652
Rp2653
ag1
(g2082
(VWheels & Accessories
p2654
F4.439862542955327
F0.8976935858876657
tp2655
tp2656
Rp2657
ag1
(g2082
(VLuncheon Plates
p2658
F4.7
F0.7489122546850141
tp2659
tp2660
Rp2661
ag1
(g2082
(VNut Butters
p2662
F3.1176470588235294
F1.3999115407701388
tp2663
tp2664
Rp2665
ag1
(g2082
(VSprays
p2666
F4.175438596491228
F1.1970619839773167
tp2667
tp2668
Rp2669
ag1
(g2082
(VGun Loaders
p2670
F4.297872340425532
F1.0614775104013663
tp2671
tp2672
Rp2673
ag1
(g2082
(VCraft Supplies
p2674
F4.285714285714286
F0.951189731211342
tp2675
tp2676
Rp2677
ag1
(g2082
(VWelding & Soldering
p2678
F4.4390625
F0.9670821816212878
tp2679
tp2680
Rp2681
ag1
(g2082
(VLens Cleaners
p2682
F4.306912991656734
F1.1910368421130353
tp2683
tp2684
Rp2685
ag1
(g2082
(VSteering & Suspension Tools
p2686
F4.589743589743589
F0.5946227781653597
tp2687
tp2688
Rp2689
ag1
(g2082
(VGenerator Accessories
p2690
F4.815789473684211
F0.4565003867790752
tp2691
tp2692
Rp2693
ag1
(g2082
(VStraps
p2694
F3.4545454545454546
F1.5724907862137931
tp2695
tp2696
Rp2697
ag1
(g2082
(VTable Pads
p2698
F4.472727272727273
F1.0157016449971084
tp2699
tp2700
Rp2701
ag1
(g2082
(VBody Mud
p2702
F4.844444444444444
F0.6726999721460175
tp2703
tp2704
Rp2705
ag1
(g2082
(VWallet Cases
p2706
F4.448888888888889
F0.9812124019690016
tp2707
tp2708
Rp2709
ag1
(g2082
(VInternal TV Tuner & Capture Cards
p2710
F3.5090909090909093
F1.4513432765535887
tp2711
tp2712
Rp2713
ag1
(g2082
(VTe Deum
p2714
F4.842105263157895
F0.6882472016116853
tp2715
tp2716
Rp2717
ag1
(g2082
(VThrash & Speed Metal
p2718
F4.27235401459854
F1.1052351778673895
tp2719
tp2720
Rp2721
ag1
(g2082
(VSports & Outdoors
p2722
F4.403581943081452
F0.9846811577795817
tp2723
tp2724
Rp2725
ag1
(g2082
(VKeyboard & Mice Accessories
p2726
F4.083186360964139
F1.1936145727429675
tp2727
tp2728
Rp2729
ag1
(g2082
(VSocial Networking
p2730
F3.852272727272727
F1.4493657844360441
tp2731
tp2732
Rp2733
ag1
(g2082
(VGloves, Mittens & Liners
p2734
F4.146017699115045
F1.0245463298004494
tp2735
tp2736
Rp2737
ag1
(g2082
(VHolsters
p2738
F4.2548076923076925
F1.0372025514085175
tp2739
tp2740
Rp2741
ag1
(g2082
(VNeckties
p2742
F4.464285714285714
F0.9189401523178278
tp2743
tp2744
Rp2745
ag1
(g2082
(VWaist Packs
p2746
F4.371647509578544
F0.9506074810167064
tp2747
tp2748
Rp2749
ag1
(g2082
(VSeat Posts
p2750
F4.388888888888889
F1.0007748935684284
tp2751
tp2752
Rp2753
ag1
(g2082
(VPitters
p2754
F4.4260485651214125
F0.9439755730907253
tp2755
tp2756
Rp2757
ag1
(g2082
(VArias
p2758
F4.666666666666667
F0.7784989441615229
tp2759
tp2760
Rp2761
ag1
(g2082
(VPolishes & Dyes
p2762
F4.314285714285714
F1.0784364654832632
tp2763
tp2764
Rp2765
ag1
(g2082
(VProgressive Rock
p2766
F4.3765432098765435
F1.074928465617989
tp2767
tp2768
Rp2769
ag1
(g2082
(VDown & Parkas
p2770
F2.8
F2.04939015319192
tp2771
tp2772
Rp2773
ag1
(g2082
(VAging
p2774
F4.8
F0.4472135954999579
tp2775
tp2776
Rp2777
ag1
(g2082
(VKindle Touch Covers (Previous Generation)
p2778
F4.680555555555555
F0.6676928721485627
tp2779
tp2780
Rp2781
ag1
(g2082
(VCard Albums
p2782
F5.0
F0.0
tp2783
tp2784
Rp2785
ag1
(g2082
(VNew Jack
p2786
F4.245918904686677
F1.045880037807066
tp2787
tp2788
Rp2789
ag1
(g2082
(VPomades & Waxes
p2790
F3.7938144329896906
F1.2914998938489397
tp2791
tp2792
Rp2793
ag1
(g2082
(VFolders
p2794
F4.477072310405644
F0.7061099380025302
tp2795
tp2796
Rp2797
ag1
(g2082
(VRockabilly
p2798
F4.3076923076923075
F0.7510676161988107
tp2799
tp2800
Rp2801
ag1
(g2082
(VFootswitches & Controllers
p2802
F4.40625
F0.9791166196315481
tp2803
tp2804
Rp2805
ag1
(g2082
(VBraiders
p2806
F3.043956043956044
F1.548562687800012
tp2807
tp2808
Rp2809
ag1
(g2082
(VUmbrella Stands
p2810
F4.333333333333333
F0.8660254037844386
tp2811
tp2812
Rp2813
ag1
(g2082
(VPhotographs
p2814
F4.857142857142857
F0.37796447300922725
tp2815
tp2816
Rp2817
ag1
(g2082
(VBD-RE Discs
p2818
F4.426395939086294
F1.1387935370309337
tp2819
tp2820
Rp2821
ag1
(g2082
(VLighting & Studio
p2822
F4.305333621248111
F1.0205510580597854
tp2823
tp2824
Rp2825
ag1
(g2082
(VPlanters
p2826
F4.198795180722891
F1.1766407217574302
tp2827
tp2828
Rp2829
ag1
(g2082
(VSpa Slippers
p2830
F3.5555555555555554
F1.3333333333333333
tp2831
tp2832
Rp2833
ag1
(g2082
(VShells
p2834
F4.2727272727272725
F1.0390117682420419
tp2835
tp2836
Rp2837
ag1
(g2082
(VStaple Removers
p2838
F4.5
F0.8346143999363995
tp2839
tp2840
Rp2841
ag1
(g2082
(VBar Code Scanners
p2842
F4.166666666666667
F0.8348471099367218
tp2843
tp2844
Rp2845
ag1
(g2082
(VBlues Rock
p2846
F4.394823867721064
F0.9744434562850802
tp2847
tp2848
Rp2849
ag1
(g2082
(VPlayStation
p2850
F4.2304147465437785
F1.118170478385293
tp2851
tp2852
Rp2853
ag1
(g2082
(VLabels & Stickers
p2854
F4.4329253060204845
F0.8630253210736161
tp2855
tp2856
Rp2857
ag1
(g2082
(VPotato Mashers & Ricers
p2858
F4.553113553113553
F0.8404451714208369
tp2859
tp2860
Rp2861
ag1
(g2082
(VSatellite TV Equipment
p2862
F4.309507754551585
F1.197426373299937
tp2863
tp2864
Rp2865
ag1
(g2082
(VCarabiners
p2866
F4.544600938967136
F0.8605594094776353
tp2867
tp2868
Rp2869
ag1
(g2082
(VMore Systems
p2870
F4.17932296431839
F1.1388109335303351
tp2871
tp2872
Rp2873
ag1
(g2082
(VHair Color
p2874
F3.8529411764705883
F1.4724659146964705
tp2875
tp2876
Rp2877
ag1
(g2082
(VMoisturizing Gloves
p2878
F4.055555555555555
F1.1405651620529575
tp2879
tp2880
Rp2881
ag1
(g2082
(VString Winders
p2882
F4.574324324324325
F0.7198943253536667
tp2883
tp2884
Rp2885
ag1
(g2082
(VChain Deflectors
p2886
F4.729166666666667
F0.7362811481207531
tp2887
tp2888
Rp2889
ag1
(g2082
(VBody Sprays
p2890
F4.378048780487805
F1.0981327587719412
tp2891
tp2892
Rp2893
ag1
(g2082
(VHand Tools
p2894
F4.432712215320911
F0.9886015107949048
tp2895
tp2896
Rp2897
ag1
(g2082
(VNew Age
p2898
F4.51890482398957
F0.8906342732927334
tp2899
tp2900
Rp2901
ag1
(g2082
(VElectronics & Gadgets
p2902
F3.9510932105868815
F1.1692773461929489
tp2903
tp2904
Rp2905
ag1
(g2082
(VSingle Homeopathic Remedies
p2906
F4.204081632653061
F1.1719208331326199
tp2907
tp2908
Rp2909
ag1
(g2082
(VPassions
p2910
F4.372093023255814
F1.125484391841606
tp2911
tp2912
Rp2913
ag1
(g2082
(VAmbient
p2914
F4.634615384615385
F0.7417215310091748
tp2915
tp2916
Rp2917
ag1
(g2082
(VHi-Fi & HT Cabinets
p2918
F4.63013698630137
F0.8898634307682103
tp2919
tp2920
Rp2921
ag1
(g2082
(VBusiness & Marketing Plans
p2922
F4.0
F1.3093073414159542
tp2923
tp2924
Rp2925
ag1
(g2082
(VBiking Gloves
p2926
F4.088541666666667
F1.2009917186235894
tp2927
tp2928
Rp2929
ag1
(g2082
(VCloth Diapers
p2930
F4.470588235294118
F0.8744746321952063
tp2931
tp2932
Rp2933
ag1
(g2082
(VNetworking
p2934
F3.5
F1.4323840748664562
tp2935
tp2936
Rp2937
ag1
(g2082
(VSocial Studies Materials
p2938
F4.8
F0.4472135954999579
tp2939
tp2940
Rp2941
ag1
(g2082
(VToday's Country
p2942
F4.389601195626524
F1.0647428121304539
tp2943
tp2944
Rp2945
ag1
(g2082
(VBike Tools & Maintenance
p2946
F4.532671300893743
F0.8502699530430734
tp2947
tp2948
Rp2949
ag1
(g2082
(VBatteries, Chargers & Accessories
p2950
F4.495475113122172
F0.9337352757280175
tp2951
tp2952
Rp2953
ag1
(g2082
(VUkulele Accessories
p2954
F4.517647058823529
F0.9208144002261613
tp2955
tp2956
Rp2957
ag1
(g2082
(VComfort Bikes
p2958
F3.6923076923076925
F1.6525039276108333
tp2959
tp2960
Rp2961
ag1
(g2082
(VShoe Brushes
p2962
F4.413043478260869
F0.8913771776381435
tp2963
tp2964
Rp2965
ag1
(g2082
(VChile
p2966
F4.217391304347826
F1.0731685893912655
tp2967
tp2968
Rp2969
ag1
(g2082
(VPuerto Rico
p2970
F4.615384615384615
F0.7679476477883045
tp2971
tp2972
Rp2973
ag1
(g2082
(VGolf Club Bags
p2974
F4.5
F0.693888666488711
tp2975
tp2976
Rp2977
ag1
(g2082
(VOutdoor Rest & Relaxation
p2978
F2.8
F1.6431676725154984
tp2979
tp2980
Rp2981
ag1
(g2082
(VVehicle Mounts
p2982
F4.142857142857143
F1.1883130530663675
tp2983
tp2984
Rp2985
ag1
(g2082
(VActivators
p2986
F4.2
F1.3038404810405297
tp2987
tp2988
Rp2989
ag1
(g2082
(VPants & Chaps
p2990
F4.2
F1.0954451150103321
tp2991
tp2992
Rp2993
ag1
(g2082
(VStylus Pens
p2994
F4.272516497235598
F1.077747779810376
tp2995
tp2996
Rp2997
ag1
(g2082
(VCleansers
p2998
F4.339946585272797
F1.06112924015944
tp2999
tp3000
Rp3001
ag1
(g2082
(VDockers
p3002
F4.219032429558745
F1.0817043877411252
tp3003
tp3004
Rp3005
ag1
(g2082
(VFinder Scopes
p3006
F4.465116279069767
F0.7467210585361079
tp3007
tp3008
Rp3009
ag1
(g2082
(VComedy & Spoken Word
p3010
F4.139664804469274
F1.1064070598143814
tp3011
tp3012
Rp3013
ag1
(g2082
(VM
p3014
F4.428571428571429
F1.1338934190276817
tp3015
tp3016
Rp3017
ag1
(g2082
(VSkates
p3018
F4.2
F1.3038404810405297
tp3019
tp3020
Rp3021
ag1
(g2082
(VToccatas
p3022
F4.3
F0.9486832980505138
tp3023
tp3024
Rp3025
ag1
(g2082
(VShoe Measuring Devices
p3026
F4.647058823529412
F0.6063390625908324
tp3027
tp3028
Rp3029
ag1
(g2082
(VMexican Cumbia
p3030
F4.444444444444445
F1.0500305245868342
tp3031
tp3032
Rp3033
ag1
(g2082
(VNine West
p3034
F4.395833333333333
F1.0667026811296003
tp3035
tp3036
Rp3037
ag1
(g2082
(VCargo Baskets
p3038
F4.818181818181818
F0.6030226891555273
tp3039
tp3040
Rp3041
ag1
(g2082
(VTack
p3042
F4.351351351351352
F1.033231613708934
tp3043
tp3044
Rp3045
ag1
(g2082
(VElectronics
p3046
F4.1975551074936295
F1.202032068500228
tp3047
tp3048
Rp3049
ag1
(g2082
(VLawn Mowers & Outdoor Power Tools
p3050
F4.246601941747572
F1.083733237631114
tp3051
tp3052
Rp3053
ag1
(g2082
(VVideo Games
p3054
F4.126007446858651
F1.1454168604351365
tp3055
tp3056
Rp3057
ag1
(g2082
(VHerbal Supplements
p3058
F4.295957489742382
F1.1338447266692722
tp3059
tp3060
Rp3061
ag1
(g2082
(VSteam Cleaners & Accessories
p3062
F3.949498843484965
F1.2997351102902257
tp3063
tp3064
Rp3065
ag1
(g2082
(VBike Pumps
p3066
F4.3010362694300515
F1.0718360500206972
tp3067
tp3068
Rp3069
ag1
(g2082
(VIndoor Ski Storage
p3070
F3.6
F1.51657508881031
tp3071
tp3072
Rp3073
ag1
(g2082
(VSoft Drinks
p3074
F3.0
F1.5
tp3075
tp3076
Rp3077
ag1
(g2082
(VCables & Accessories
p3078
F4.100637845499645
F1.209216798850992
tp3079
tp3080
Rp3081
ag1
(g2082
(VCaster Boards
p3082
F4.545454545454546
F0.9045340337332909
tp3083
tp3084
Rp3085
ag1
(g2082
(VHydration
p3086
F4.2578125
F1.0957763849557862
tp3087
tp3088
Rp3089
ag1
(g2082
(VDown & Down Alternative
p3090
F4.1891891891891895
F1.19809658852508
tp3091
tp3092
Rp3093
ag1
(g2082
(VIced Beverage Dispensers
p3094
F4.230769230769231
F1.2620460296659053
tp3095
tp3096
Rp3097
ag1
(g2082
(VRadios & Parts
p3098
F4.333333333333333
F1.0730867399773196
tp3099
tp3100
Rp3101
ag1
(g2082
(VDenim
p3102
F3.933333333333333
F1.3113124074319809
tp3103
tp3104
Rp3105
ag1
(g2082
(VShampoos
p3106
F4.147808808919307
F1.0951167227461105
tp3107
tp3108
Rp3109
ag1
(g2082
(VClothing
p3110
F4.278414674091058
F1.0248904820775269
tp3111
tp3112
Rp3113
ag1
(g2082
(VBinders
p3114
F4.199019607843137
F0.9031572432256845
tp3115
tp3116
Rp3117
ag1
(g2082
(VShears & Scissors
p3118
F4.426877470355731
F0.9255998338305957
tp3119
tp3120
Rp3121
ag1
(g2082
(VSweeping
p3122
F4.379310344827586
F0.9658512680775211
tp3123
tp3124
Rp3125
ag1
(g2082
(VGUESS
p3126
F4.24
F1.0606120681868907
tp3127
tp3128
Rp3129
ag1
(g2082
(VEarly Childhood Education Materials
p3130
F4.555555555555555
F0.6025506556670216
tp3131
tp3132
Rp3133
ag1
(g2082
(VBasting Brushes
p3134
F4.538461538461538
F0.6602252917735248
tp3135
tp3136
Rp3137
ag1
(g2082
(VBackyard Birding & Wildlife
p3138
F4.03012912482066
F1.2190815793440273
tp3139
tp3140
Rp3141
ag1
(g2082
(VBody
p3142
F4.2861753276691035
F1.1036271560497215
tp3143
tp3144
Rp3145
ag1
(g2082
(VAcoustic Guitar Strings
p3146
F4.58997722095672
F0.7557933020751544
tp3147
tp3148
Rp3149
ag1
(g2082
(VJump Starters, Battery Chargers & Portable Power
p3150
F4.606122448979592
F0.843144114163372
tp3151
tp3152
Rp3153
ag1
(g2082
(VTransportation & Storage
p3154
F4.263498920086393
F1.0484508586104115
tp3155
tp3156
Rp3157
ag1
(g2082
(VBrake Parts
p3158
F4.454545454545454
F1.2135597524338357
tp3159
tp3160
Rp3161
ag1
(g2082
(VSpinners & Spinnerbaits
p3162
F4.40625
F1.1030566037007086
tp3163
tp3164
Rp3165
ag1
(g2082
(VTire Repair Kits
p3166
F4.0
F1.4142135623730951
tp3167
tp3168
Rp3169
ag1
(g2082
(VBarrettes
p3170
F4.046511627906977
F1.1469342946890155
tp3171
tp3172
Rp3173
ag1
(g2082
(VHybrid Clubs
p3174
F4.6
F0.894427190999916
tp3175
tp3176
Rp3177
ag1
(g2082
(VAwards & Incentives Supplies
p3178
F4.8
F0.4472135954999579
tp3179
tp3180
Rp3181
ag1
(g2082
(VThread Repair Kits
p3182
F4.875
F0.3535533905932738
tp3183
tp3184
Rp3185
ag1
(g2082
(VLeisure Sports & Game Room
p3186
F4.307602339181287
F1.0480832202303785
tp3187
tp3188
Rp3189
ag1
(g2082
(VTrance
p3190
F4.199555308504725
F1.1090084268862819
tp3191
tp3192
Rp3193
ag1
(g2082
(VSunglasses
p3194
F4.278530670470756
F1.123083065183965
tp3195
tp3196
Rp3197
ag1
(g2082
(VScarves
p3198
F4.46583850931677
F0.8734347135062609
tp3199
tp3200
Rp3201
ag1
(g2082
(VPainting Supplies
p3202
F4.862068965517241
F0.3478392380269826
tp3203
tp3204
Rp3205
ag1
(g2082
(VControl Slips
p3206
F3.7039473684210527
F1.1783860091733716
tp3207
tp3208
Rp3209
ag1
(g2082
(VSleep & Snoring
p3210
F4.031411157993436
F1.291126801860583
tp3211
tp3212
Rp3213
ag1
(g2082
(VCables & Adapters
p3214
F4.285342584562012
F1.202977458370039
tp3215
tp3216
Rp3217
ag1
(g2082
(VPotato Ricers
p3218
F4.498412698412698
F0.8535224995060632
tp3219
tp3220
Rp3221
ag1
(g2082
(VArmbands
p3222
F3.9523809523809526
F1.2252233265632124
tp3223
tp3224
Rp3225
ag1
(g2082
(VBeds
p3226
F4.330668604651163
F1.0829407051286437
tp3227
tp3228
Rp3229
ag1
(g2082
(VGun Rails
p3230
F4.380710659898477
F1.0163126138745306
tp3231
tp3232
Rp3233
ag1
(g2082
(VMerrell
p3234
F4.566666666666666
F0.8172001541568767
tp3235
tp3236
Rp3237
ag1
(g2082
(VAppointment Books & Planners
p3238
F4.5625
F0.6492630847287479
tp3239
tp3240
Rp3241
ag1
(g2082
(VRadiators
p3242
F4.6923076923076925
F0.5491251783869154
tp3243
tp3244
Rp3245
ag1
(g2082
(VGinger
p3246
F4.769230769230769
F0.4385290096535145
tp3247
tp3248
Rp3249
ag1
(g2082
(VNovelty
p3250
F3.565794323626981
F1.5725458138756017
tp3251
tp3252
Rp3253
ag1
(g2082
(VKnife Blocks & Storage
p3254
F4.487875288683603
F0.9123155641856154
tp3255
tp3256
Rp3257
ag1
(g2082
(VPlates
p3258
F4.583333333333333
F0.801160100330342
tp3259
tp3260
Rp3261
ag1
(g2082
(VUSB-to-USB Adapters
p3262
F4.069246435845214
F1.399450053196016
tp3263
tp3264
Rp3265
ag1
(g2082
(VMakeup Mirrors
p3266
F4.123203285420945
F1.1534594618775924
tp3267
tp3268
Rp3269
ag1
(g2082
(VTingley
p3270
F4.416666666666667
F1.0035149493261806
tp3271
tp3272
Rp3273
ag1
(g2082
(VKids' Home Store
p3274
F4.285714285714286
F1.4373357526806552
tp3275
tp3276
Rp3277
ag1
(g2082
(VLifestyle & Hobbies
p3278
F2.1666666666666665
F0.983192080250175
tp3279
tp3280
Rp3281
ag1
(g2082
(VApplesauce & Fruit Cups
p3282
F4.555555555555555
F0.7264831572567788
tp3283
tp3284
Rp3285
ag1
(g2082
(VAutomatic Pool Cleaners
p3286
F4.7894736842105265
F0.41885390829169555
tp3287
tp3288
Rp3289
ag1
(g2082
(VGame & Trail Cameras
p3290
F5.0
F0.0
tp3291
tp3292
Rp3293
ag1
(g2082
(VForms & Genres
p3294
F4.389380530973451
F1.0279094496962404
tp3295
tp3296
Rp3297
ag1
(g2082
(VBed Pillows
p3298
F4.017980414191684
F1.2772392525123875
tp3299
tp3300
Rp3301
ag1
(g2082
(VTraining Equipment
p3302
F4.166388425153033
F0.9930857460111571
tp3303
tp3304
Rp3305
ag1
(g2082
(VGrapefruit Utensils
p3306
F4.326923076923077
F1.0905072009551278
tp3307
tp3308
Rp3309
ag1
(g2082
(VWallets
p3310
F4.440449438202247
F0.9295837367749533
tp3311
tp3312
Rp3313
ag1
(g2082
(VKindle Fire HDX Covers
p3314
F4.012698412698413
F1.0965310401439017
tp3315
tp3316
Rp3317
ag1
(g2082
(VGloves & Mitts
p3318
F4.75
F0.46291004988627593
tp3319
tp3320
Rp3321
ag1
(g2082
(VCamcorders
p3322
F3.32
F1.420548902246406
tp3323
tp3324
Rp3325
ag1
(g2082
(VElectronic Drums
p3326
F3.4
F0.8944271909999159
tp3327
tp3328
Rp3329
ag1
(g2082
(VKindle Fire HDX Extended Warranties
p3330
F4.573529411764706
F0.9821720746369568
tp3331
tp3332
Rp3333
ag1
(g2082
(VEducational
p3334
F4.723404255319149
F0.4521507857175268
tp3335
tp3336
Rp3337
ag1
(g2082
(VExercise
p3338
F4.571428571428571
F0.5345224838248488
tp3339
tp3340
Rp3341
ag1
(g2082
(VDrain Plug
p3342
F5.0
F0.0
tp3343
tp3344
Rp3345
ag1
(g2082
(VFantasy
p3346
F4.238095238095238
F1.0777013435226057
tp3347
tp3348
Rp3349
ag1
(g2082
(VAmazon Marketplace
p3350
F2.1818181818181817
F1.1677484162422844
tp3351
tp3352
Rp3353
ag1
(g2082
(VNorthern
p3354
F4.648725212464589
F0.7470432747779306
tp3355
tp3356
Rp3357
ag1
(g2082
(VJig Saw Accessories
p3358
F4.302564102564102
F0.9392602867861484
tp3359
tp3360
Rp3361
ag1
(g2082
(VBags, Packs & Accessories
p3362
F4.348623853211009
F1.0661122412331814
tp3363
tp3364
Rp3365
ag1
(g2082
(VPuma
p3366
F4.25
F1.0530510332150598
tp3367
tp3368
Rp3369
ag1
(g2082
(VWedges
p3370
F4.503355704697986
F0.8923480249472623
tp3371
tp3372
Rp3373
ag1
(g2082
(VTillers
p3374
F4.384615384615385
F0.9829312519977407
tp3375
tp3376
Rp3377
ag1
(g2082
(VPocket Watches
p3378
F4.214285714285714
F1.166099635446457
tp3379
tp3380
Rp3381
ag1
(g2082
(VNetwork Cards
p3382
F3.9285714285714284
F1.328057326976612
tp3383
tp3384
Rp3385
ag1
(g2082
(VHand Grips
p3386
F3.909090909090909
F1.3751033019046572
tp3387
tp3388
Rp3389
ag1
(g2082
(VNail Whitening
p3390
F4.4
F0.6992058987801009
tp3391
tp3392
Rp3393
ag1
(g2082
(Vbebe
p3394
F4.2
F0.8366600265340756
tp3395
tp3396
Rp3397
ag1
(g2082
(VKindle (1st Generation) Lights
p3398
F4.196261682242991
F1.160995444195379
tp3399
tp3400
Rp3401
ag1
(g2082
(VASICS
p3402
F3.8666666666666667
F1.3557637102737476
tp3403
tp3404
Rp3405
ag1
(g2082
(VNature & Environment
p3406
F4.44488188976378
F0.987527647997792
tp3407
tp3408
Rp3409
ag1
(g2082
(VHunting & Fishing
p3410
F4.427393411776947
F0.9735225750312476
tp3411
tp3412
Rp3413
ag1
(g2082
(VDoorstops
p3414
F4.241379310344827
F1.2184307541761752
tp3415
tp3416
Rp3417
ag1
(g2082
(VHair Care
p3418
F4.092067988668555
F1.2185828466086899
tp3419
tp3420
Rp3421
ag1
(g2082
(VFoundation
p3422
F4.146577629382304
F1.2093286395422975
tp3423
tp3424
Rp3425
ag1
(g2082
(VCotton Swabs
p3426
F4.455696202531645
F0.9495422852005188
tp3427
tp3428
Rp3429
ag1
(g2082
(VD
p3430
F4.172627563185503
F1.0950767737139226
tp3431
tp3432
Rp3433
ag1
(g2082
(VSports Sunglasses
p3434
F4.432098765432099
F0.8935640940209363
tp3435
tp3436
Rp3437
ag1
(g2082
(VTin Pan Alley
p3438
F4.638655462184874
F0.7098709889590324
tp3439
tp3440
Rp3441
ag1
(g2082
(VSatellite Television
p3442
F3.7438825448613375
F1.4757237946878445
tp3443
tp3444
Rp3445
ag1
(g2082
(VPenthouse
p3446
F4.478260869565218
F0.8154517992062097
tp3447
tp3448
Rp3449
ag1
(g2082
(VBrake Calipers
p3450
F4.333333333333333
F1.0465362369445674
tp3451
tp3452
Rp3453
ag1
(g2082
(VLicense Plate Frames
p3454
F4.142857142857143
F0.8997354108424372
tp3455
tp3456
Rp3457
ag1
(g2082
(VPool Heat Pumps
p3458
F4.666666666666667
F0.5163977794943222
tp3459
tp3460
Rp3461
ag1
(g2082
(VGuitar & Bass Accessories
p3462
F4.533013205282113
F0.8436705448314901
tp3463
tp3464
Rp3465
ag1
(g2082
(VB-Complex
p3466
F4.467994310099574
F0.9878390701210435
tp3467
tp3468
Rp3469
ag1
(g2082
(VCasual Daypacks
p3470
F4.392029657089898
F1.0333813649867263
tp3471
tp3472
Rp3473
ag1
(g2082
(VAmplifier Installation
p3474
F4.368772470467386
F1.112671425457677
tp3475
tp3476
Rp3477
ag1
(g2082
(VKindle eBooks
p3478
F4.485870940531421
F0.836981888735236
tp3479
tp3480
Rp3481
ag1
(g2082
(VBathing Accessories
p3482
F4.214964370546318
F1.1592011317668542
tp3483
tp3484
Rp3485
ag1
(g2082
(VJewelry Accessories
p3486
F4.1640625
F1.1554550097375313
tp3487
tp3488
Rp3489
ag1
(g2082
(VSheet Music Folders
p3490
F4.909090909090909
F0.42640143271122094
tp3491
tp3492
Rp3493
ag1
(g2082
(VChemises
p3494
F4.229508196721311
F1.0173242638900724
tp3495
tp3496
Rp3497
ag1
(g2082
(VRobeez
p3498
F4.387096774193548
F1.0223313016447169
tp3499
tp3500
Rp3501
ag1
(g2082
(VSkateboarding
p3502
F4.46969696969697
F0.9685071059842009
tp3503
tp3504
Rp3505
ag1
(g2082
(VImage Transfer Sheets
p3506
F3.9166666666666665
F1.5050420310248864
tp3507
tp3508
Rp3509
ag1
(g2082
(VFuses
p3510
F4.9411764705882355
F0.2388325736106128
tp3511
tp3512
Rp3513
ag1
(g2082
(VBreda
p3514
F3.3636363636363638
F1.3988244910316507
tp3515
tp3516
Rp3517
ag1
(g2082
(VSpecialty Plates
p3518
F4.609756097560975
F0.6662600385918326
tp3519
tp3520
Rp3521
ag1
(g2082
(VBMX Equipment
p3522
F4.425
F1.195879678365765
tp3523
tp3524
Rp3525
ag1
(g2082
(VFooting Accessories
p3526
F4.2
F1.3038404810405297
tp3527
tp3528
Rp3529
ag1
(g2082
(VAudio & Video Accessories
p3530
F4.333333333333333
F1.0
tp3531
tp3532
Rp3533
ag1
(g2082
(VCDs & Vinyl
p3534
F4.301803638790283
F1.0812916963621533
tp3535
tp3536
Rp3537
ag1
(g2082
(VFluids & Lotions
p3538
F4.143888354186718
F1.165299400640214
tp3539
tp3540
Rp3541
ag1
(g2082
(VVests
p3542
F4.161512027491409
F1.0657827538026297
tp3543
tp3544
Rp3545
ag1
(g2082
(VPlayStation 3
p3546
F4.322553191489361
F1.051971062616257
tp3547
tp3548
Rp3549
ag1
(g2082
(VWooden Colored Pencils
p3550
F4.568965517241379
F0.7250084009232551
tp3551
tp3552
Rp3553
ag1
(g2082
(VDesign & Illustration
p3554
F3.94
F1.123141034390842
tp3555
tp3556
Rp3557
ag1
(g2082
(VCord Reels
p3558
F4.00848896434635
F1.205823141087485
tp3559
tp3560
Rp3561
ag1
(g2082
(VBluetooth Speakers
p3562
F4.344401544401545
F0.9751141934462672
tp3563
tp3564
Rp3565
ag1
(g2082
(VCooking Equipment
p3566
F4.432
F0.9447307177350899
tp3567
tp3568
Rp3569
ag1
(g2082
(VDenture Baths
p3570
F4.205128205128205
F1.004712244205882
tp3571
tp3572
Rp3573
ag1
(g2082
(VPool Enzymes
p3574
F4.463917525773196
F0.6931488487045773
tp3575
tp3576
Rp3577
ag1
(g2082
(VTime Clocks & Cards
p3578
F4.625
F1.0606601717798212
tp3579
tp3580
Rp3581
ag1
(g2082
(VInteractive Gaming Figures
p3582
F4.678571428571429
F0.8189230248533256
tp3583
tp3584
Rp3585
ag1
(g2082
(VPiercing Jewelry
p3586
F3.857142857142857
F1.4638501094227998
tp3587
tp3588
Rp3589
ag1
(g2082
(VCarpet Cleaners
p3590
F4.109863672814756
F1.232970212529671
tp3591
tp3592
Rp3593
ag1
(g2082
(VDistribution
p3594
F4.26879540462916
F1.1846536527573717
tp3595
tp3596
Rp3597
ag1
(g2082
(VBike Locks
p3598
F4.28739800543971
F1.0259318424927963
tp3599
tp3600
Rp3601
ag1
(g2082
(VValve Caps
p3602
F4.363636363636363
F1.2060453783110545
tp3603
tp3604
Rp3605
ag1
(g2082
(VTuners
p3606
F4.542213883677299
F0.8739119847989856
tp3607
tp3608
Rp3609
ag1
(g2082
(VTile & Masonry Saw Accessories
p3610
F4.033707865168539
F1.2920160268694179
tp3611
tp3612
Rp3613
ag1
(g2082
(VRetinol
p3614
F4.242857142857143
F1.1462739422956698
tp3615
tp3616
Rp3617
ag1
(g2082
(VBatting Weights
p3618
F4.153846153846154
F0.898717034272917
tp3619
tp3620
Rp3621
ag1
(g2082
(VButter Knives
p3622
F4.544642857142857
F0.8993330146835883
tp3623
tp3624
Rp3625
ag1
(g2082
(VCereals
p3626
F4.580645161290323
F0.8859719163490115
tp3627
tp3628
Rp3629
ag1
(g2082
(VFrench Connection
p3630
F4.4
F0.5477225575051662
tp3631
tp3632
Rp3633
ag1
(g2082
(VFlatware Sets
p3634
F4.417142857142857
F1.0342209574697279
tp3635
tp3636
Rp3637
ag1
(g2082
(VAntennas
p3638
F4.0196818766066835
F1.313365116652708
tp3639
tp3640
Rp3641
ag1
(g2082
(VCleaning Kits
p3642
F4.486833443054641
F0.9197237523371715
tp3643
tp3644
Rp3645
ag1
(g2082
(VSports Water Bottle Accessories
p3646
F4.473684210526316
F0.9615224332903709
tp3647
tp3648
Rp3649
ag1
(g2082
(VSaffron
p3650
F3.2
F1.6431676725154982
tp3651
tp3652
Rp3653
ag1
(g2082
(VRock Guitarists
p3654
F4.170520231213873
F1.1407336901150176
tp3655
tp3656
Rp3657
ag1
(g2082
(VDenim Jackets
p3658
F4.271739130434782
F1.0388419256960373
tp3659
tp3660
Rp3661
ag1
(g2082
(VTankinis
p3662
F4.043478260869565
F1.191759143062248
tp3663
tp3664
Rp3665
ag1
(g2082
(VCompact Microwave Ovens
p3666
F3.814814814814815
F1.3468912364386547
tp3667
tp3668
Rp3669
ag1
(g2082
(VRim Brake Sets
p3670
F4.72093023255814
F0.6068464829747049
tp3671
tp3672
Rp3673
ag1
(g2082
(VDrill Accessories
p3674
F4.279897128161166
F1.0989288358785427
tp3675
tp3676
Rp3677
ag1
(g2082
(VGirls
p3678
F4.306306306306307
F1.1272213752190707
tp3679
tp3680
Rp3681
ag1
(g2082
(VHand Mixers
p3682
F4.153020134228188
F1.2273772616881284
tp3683
tp3684
Rp3685
ag1
(g2082
(VMakeup Remover
p3686
F4.173354735152488
F1.1616027904455768
tp3687
tp3688
Rp3689
ag1
(g2082
(VSports Water Bottles
p3690
F4.448433734939759
F0.9585862716631424
tp3691
tp3692
Rp3693
ag1
(g2082
(VCard & ID Cases
p3694
F4.196172248803828
F1.1786500952830674
tp3695
tp3696
Rp3697
ag1
(g2082
(VEternity Rings
p3698
F4.327935222672065
F1.1124521492651838
tp3699
tp3700
Rp3701
ag1
(g2082
(VFruit Knives
p3702
F4.6
F0.6992058987801011
tp3703
tp3704
Rp3705
ag1
(g2082
(VLadders
p3706
F4.8
F0.4472135954999579
tp3707
tp3708
Rp3709
ag1
(g2082
(VJam Bands
p3710
F4.421052631578948
F0.6069769786668843
tp3711
tp3712
Rp3713
ag1
(g2082
(VGolf Gear
p3714
F4.571428571428571
F0.7867957924694431
tp3715
tp3716
Rp3717
ag1
(g2082
(VActive
p3718
F4.387883556254917
F0.9603609312510465
tp3719
tp3720
Rp3721
ag1
(g2082
(VNail Dryers
p3722
F4.420757363253857
F1.1065260897932039
tp3723
tp3724
Rp3725
ag1
(g2082
(VBig Beat
p3726
F4.0
F0.7071067811865476
tp3727
tp3728
Rp3729
ag1
(g2082
(VAlt-Country & Americana
p3730
F4.5
F0.5188745216627707
tp3731
tp3732
Rp3733
ag1
(g2082
(VSouth & Central America
p3734
F4.666666666666667
F0.5163977794943223
tp3735
tp3736
Rp3737
ag1
(g2082
(VPower Adapters
p3738
F4.0
F1.4142135623730951
tp3739
tp3740
Rp3741
ag1
(g2082
(VPaintball & Airsoft
p3742
F4.295300958667295
F1.1099652561934723
tp3743
tp3744
Rp3745
ag1
(g2082
(VVegetables
p3746
F3.788659793814433
F0.9982758492645347
tp3747
tp3748
Rp3749
ag1
(g2082
(VSperry Top-Sider
p3750
F4.513297872340425
F0.870147130299695
tp3751
tp3752
Rp3753
ag1
(g2082
(VAcid Jazz
p3754
F4.352941176470588
F1.0075964195362692
tp3755
tp3756
Rp3757
ag1
(g2082
(VHelmet Pads
p3758
F4.6
F0.8944271909999159
tp3759
tp3760
Rp3761
ag1
(g2082
(VStore Signs
p3762
F4.608040201005025
F0.6942299552014082
tp3763
tp3764
Rp3765
ag1
(g2082
(VSoundtracks
p3766
F4.063063063063063
F1.1304004059646642
tp3767
tp3768
Rp3769
ag1
(g2082
(VDisc Golf
p3770
F4.6
F0.5477225575051661
tp3771
tp3772
Rp3773
ag1
(g2082
(VWeed Torches
p3774
F4.5
F1.224744871391589
tp3775
tp3776
Rp3777
ag1
(g2082
(VAlternative Rock
p3778
F4.2279341226981515
F1.0970823134912413
tp3779
tp3780
Rp3781
ag1
(g2082
(VDance & Electronic
p3782
F4.3646962382730665
F1.0036259758832164
tp3783
tp3784
Rp3785
ag1
(g2082
(VDietary Fibers
p3786
F4.275225755791126
F1.1328531552798955
tp3787
tp3788
Rp3789
ag1
(g2082
(VCuba
p3790
F4.540752351097178
F0.8774521046932251
tp3791
tp3792
Rp3793
ag1
(g2082
(VHeadlight Assemblies
p3794
F4.56
F0.7681145747868608
tp3795
tp3796
Rp3797
ag1
(g2082
(VOutdoor & Work
p3798
F3.6666666666666665
F1.4142135623730951
tp3799
tp3800
Rp3801
ag1
(g2082
(VMachine Polishing Equipment
p3802
F4.75
F0.44232586846469146
tp3803
tp3804
Rp3805
ag1
(g2082
(VRacquetballs
p3806
F4.6
F0.8280786712108251
tp3807
tp3808
Rp3809
ag1
(g2082
(VNorth America
p3810
F4.265
F1.110629324224053
tp3811
tp3812
Rp3813
ag1
(g2082
(VWallets, Card Cases & Money Organizers
p3814
F4.230769230769231
F1.124764846004678
tp3815
tp3816
Rp3817
ag1
(g2082
(VCarts
p3818
F4.641025641025641
F0.6683514473837645
tp3819
tp3820
Rp3821
ag1
(g2082
(VxD-Picture Cards
p3822
F4.475409836065574
F1.0166809934945786
tp3823
tp3824
Rp3825
ag1
(g2082
(VCream Chargers & Whippers
p3826
F4.593607305936073
F0.9157917570778301
tp3827
tp3828
Rp3829
ag1
(g2082
(VPaint Tools & Equipment
p3830
F2.8
F2.04939015319192
tp3831
tp3832
Rp3833
ag1
(g2082
(VInsulated
p3834
F4.544444444444444
F0.8232726023485645
tp3835
tp3836
Rp3837
ag1
(g2082
(VPants
p3838
F4.292929292929293
F0.982006746438911
tp3839
tp3840
Rp3841
ag1
(g2082
(VDinosoles
p3842
F4.8
F0.4472135954999579
tp3843
tp3844
Rp3845
ag1
(g2082
(VSkiing
p3846
F4.25
F0.9653072991634226
tp3847
tp3848
Rp3849
ag1
(g2082
(VBodysuits
p3850
F4.666666666666667
F0.7071067811865476
tp3851
tp3852
Rp3853
ag1
(g2082
(VFuel Injectors
p3854
F3.857142857142857
F1.4638501094228
tp3855
tp3856
Rp3857
ag1
(g2082
(VFunnels
p3858
F4.523157894736842
F0.8704192310869125
tp3859
tp3860
Rp3861
ag1
(g2082
(VPedals & Cleats
p3862
F4.486810551558753
F0.8934574673879945
tp3863
tp3864
Rp3865
ag1
(g2082
(VHeating Pads
p3866
F4.193364928909952
F1.2392052123645194
tp3867
tp3868
Rp3869
ag1
(g2082
(VCustom Fit
p3870
F4.705882352941177
F0.5878675320972554
tp3871
tp3872
Rp3873
ag1
(g2082
(VHelmets
p3874
F4.419941775836972
F0.9429052728085766
tp3875
tp3876
Rp3877
ag1
(g2082
(VEasy Spirit
p3878
F4.19672131147541
F1.0765176682422963
tp3879
tp3880
Rp3881
ag1
(g2082
(VStanding Baker's Racks
p3882
F4.520325203252033
F0.782488605646208
tp3883
tp3884
Rp3885
ag1
(g2082
(VManual Weeders
p3886
F4.540983606557377
F1.0258942520520538
tp3887
tp3888
Rp3889
ag1
(g2082
(VNautica
p3890
F4.56
F1.121011448053349
tp3891
tp3892
Rp3893
ag1
(g2082
(VDouble Bowl
p3894
F4.54054054054054
F0.8364805435272838
tp3895
tp3896
Rp3897
ag1
(g2082
(VRelaxation
p3898
F4.4
F1.231174022502185
tp3899
tp3900
Rp3901
ag1
(g2082
(VElectric Bicycles
p3902
F3.857142857142857
F1.4638501094227994
tp3903
tp3904
Rp3905
ag1
(g2082
(VC
p3906
F4.396521739130435
F0.9520399837747223
tp3907
tp3908
Rp3909
ag1
(g2082
(VVitalio Vera
p3910
F4.52
F0.8717797887081349
tp3911
tp3912
Rp3913
ag1
(g2082
(VStandard Pencil Erasers
p3914
F4.704225352112676
F0.7249505637762599
tp3915
tp3916
Rp3917
ag1
(g2082
(VRiding Boots
p3918
F4.503937007874016
F0.7650502187898133
tp3919
tp3920
Rp3921
ag1
(g2082
(VRomantic
p3922
F4.166666666666667
F1.136125055548011
tp3923
tp3924
Rp3925
ag1
(g2082
(VAlpha Beta
p3926
F4.355555555555555
F1.0259265336880865
tp3927
tp3928
Rp3929
ag1
(g2082
(VShower Radios
p3930
F4.083333333333333
F1.2276574673510754
tp3931
tp3932
Rp3933
ag1
(g2082
(VTargets & Baskets
p3934
F4.8
F0.4472135954999579
tp3935
tp3936
Rp3937
ag1
(g2082
(VMovies
p3938
F4.0188996982849226
F1.2309655239668542
tp3939
tp3940
Rp3941
ag1
(g2082
(VClassical
p3942
F4.314968152866242
F1.0726881268234607
tp3943
tp3944
Rp3945
ag1
(g2082
(VSaddles
p3946
F4.304626334519573
F1.0444603320391994
tp3947
tp3948
Rp3949
ag1
(g2082
(VSets & Kits
p3950
F4.094221105527638
F1.2558959903082085
tp3951
tp3952
Rp3953
ag1
(g2082
(VSoft Boxes
p3954
F4.0983981693363845
F1.1278252517974874
tp3955
tp3956
Rp3957
ag1
(g2082
(VShopping
p3958
F4.001169248757673
F1.3632601236086002
tp3959
tp3960
Rp3961
ag1
(g2082
(VBlack Currant Oil
p3962
F4.1875
F1.096531327587567
tp3963
tp3964
Rp3965
ag1
(g2082
(VHerbs, Spices & Seasonings
p3966
F4.355828220858895
F1.0522227008980025
tp3967
tp3968
Rp3969
ag1
(g2082
(VHair Drying Towels
p3970
F4.114457831325301
F1.1410396673444134
tp3971
tp3972
Rp3973
ag1
(g2082
(VPizzelle Makers
p3974
F4.4
F1.0856902892884872
tp3975
tp3976
Rp3977
ag1
(g2082
(VAssortments
p3978
F4.571428571428571
F0.9200874124564722
tp3979
tp3980
Rp3981
ag1
(g2082
(VMultieffects Processors
p3982
F4.333333333333333
F0.816496580927726
tp3983
tp3984
Rp3985
ag1
(g2082
(VCast Iron
p3986
F4.038461538461538
F0.7200427337745576
tp3987
tp3988
Rp3989
ag1
(g2082
(Vadidas Originals
p3990
F4.769230769230769
F0.43852900965351455
tp3991
tp3992
Rp3993
ag1
(g2082
(VSony PSP
p3994
F4.444444444444445
F0.8819171036881969
tp3995
tp3996
Rp3997
ag1
(g2082
(VBallets
p3998
F4.56175972927242
F0.8844185774497458
tp3999
tp4000
Rp4001
ag1
(g2082
(VBras
p4002
F3.990888580354044
F1.2443412938808769
tp4003
tp4004
Rp4005
ag1
(g2082
(VLanguages
p4006
F4.482758620689655
F0.8289705171033535
tp4007
tp4008
Rp4009
ag1
(g2082
(VBloomers, Diaper Covers & Underwear
p4010
F4.521739130434782
F0.7911357932031312
tp4011
tp4012
Rp4013
ag1
(g2082
(VJewelry Boxes & Organizers
p4014
F4.416974169741698
F1.0062318184838652
tp4015
tp4016
Rp4017
ag1
(g2082
(VKids' Tricycles
p4018
F4.151898734177215
F1.0632389749340878
tp4019
tp4020
Rp4021
ag1
(g2082
(VCounterfeit Bill Detectors
p4022
F4.571428571428571
F0.5345224838248486
tp4023
tp4024
Rp4025
ag1
(g2082
(VUGG
p4026
F4.415094339622642
F1.063990353197863
tp4027
tp4028
Rp4029
ag1
(g2082
(VKindle Fire HD 8.9" Extended Warranties
p4030
F4.54014598540146
F0.9076034906161488
tp4031
tp4032
Rp4033
ag1
(g2082
(VBaseball & Softball
p4034
F4.733333333333333
F0.45773770821706333
tp4035
tp4036
Rp4037
ag1
(g2082
(VWoodlore
p4038
F4.176470588235294
F1.1311108542958477
tp4039
tp4040
Rp4041
ag1
(g2082
(VIran
p4042
F4.470588235294118
F1.007326105267277
tp4043
tp4044
Rp4045
ag1
(g2082
(VElectronica
p4046
F4.219879518072289
F1.0703984097613977
tp4047
tp4048
Rp4049
ag1
(g2082
(VAutomotive
p4050
F4.442516268980477
F0.9697671830801646
tp4051
tp4052
Rp4053
ag1
(g2082
(VStands
p4054
F4.427807486631016
F0.9721260401862326
tp4055
tp4056
Rp4057
ag1
(g2082
(VSafety & Security
p4058
F4.417808219178082
F0.9518584410261078
tp4059
tp4060
Rp4061
ag1
(g2082
(VSkagen Watches
p4062
F4.404761904761905
F0.9894061775568931
tp4063
tp4064
Rp4065
ag1
(g2082
(VTights
p4066
F3.6666666666666665
F1.7511900715418265
tp4067
tp4068
Rp4069
ag1
(g2082
(VSilver Jewelry
p4070
F4.576271186440678
F0.7922771595873129
tp4071
tp4072
Rp4073
ag1
(g2082
(VSilicon
p4074
F4.575342465753424
F0.8319623425501983
tp4075
tp4076
Rp4077
ag1
(g2082
(VAdhesives
p4078
F4.775
F0.47971679679599
tp4079
tp4080
Rp4081
ag1
(g2082
(VLiquid Detergent
p4082
F4.437062029587334
F0.8924495125463211
tp4083
tp4084
Rp4085
ag1
(g2082
(VCloths & Towelettes
p4086
F4.250197316495659
F1.0537255993666308
tp4087
tp4088
Rp4089
ag1
(g2082
(VMarine Electronics
p4090
F4.405586592178771
F1.0328887333060128
tp4091
tp4092
Rp4093
ag1
(g2082
(VEnzymes
p4094
F4.439655172413793
F1.0565445257209272
tp4095
tp4096
Rp4097
ag1
(g2082
(VHandbag Organizers
p4098
F4.190751445086705
F1.20730625175872
tp4099
tp4100
Rp4101
ag1
(g2082
(VGarment Bags
p4102
F4.311111111111111
F1.0399961729742062
tp4103
tp4104
Rp4105
ag1
(g2082
(VBatteries & Accessories
p4106
F4.548780487804878
F0.8951462714128346
tp4107
tp4108
Rp4109
ag1
(g2082
(VFennel Seed
p4110
F4.666666666666667
F0.7071067811865476
tp4111
tp4112
Rp4113
ag1
(g2082
(VDarkroom Supplies
p4114
F3.9204545454545454
F1.3409688632339711
tp4115
tp4116
Rp4117
ag1
(g2082
(VPants & Capris
p4118
F4.0
F1.1952286093343936
tp4119
tp4120
Rp4121
ag1
(g2082
(VSnow Blowers
p4122
F3.9
F1.3703203194062974
tp4123
tp4124
Rp4125
ag1
(g2082
(VDecals
p4126
F4.482758620689655
F0.9954524548348157
tp4127
tp4128
Rp4129
ag1
(g2082
(VWeed Killers
p4130
F4.341463414634147
F0.8834522085987722
tp4131
tp4132
Rp4133
ag1
((lp4134
S'categories[0]'
p4135
aS'avg(overall)'
p4136
aS'stddev_samp(CAST(overall AS DOUBLE))'
p4137
a(VFar East & Asia
p4138
F4.371087928464978
F1.026949624403756
tp4139
tp4140
Rp4141
ag1
(g4134
(VTape, Adhesives & Fasteners
p4142
F4.4347587719298245
F0.8346211288774443
tp4143
tp4144
Rp4145
ag1
(g4134
(VStraps & Strap Locks
p4146
F4.474504249291785
F0.8912825060864131
tp4147
tp4148
Rp4149
ag1
(g4134
(VVitamin K
p4150
F4.2835820895522385
F1.1124891300130155
tp4151
tp4152
Rp4153
ag1
(g4134
(VPaint, Stain & Solvents
p4154
F4.181818181818182
F0.7507571935295484
tp4155
tp4156
Rp4157
ag1
(g4134
(VPool Clarifiers & Enzymes
p4158
F3.046511627906977
F1.495286059144235
tp4159
tp4160
Rp4161
ag1
(g4134
(VDubstep
p4162
F4.333333333333333
F0.9660917830792959
tp4163
tp4164
Rp4165
ag1
(g4134
(VStaheekum
p4166
F4.0
F1.224744871391589
tp4167
tp4168
Rp4169
ag1
(g4134
(VPiercing Supplies
p4170
F4.870967741935484
F0.42754613660367846
tp4171
tp4172
Rp4173
ag1
(g4134
(VSuperga
p4174
F3.857142857142857
F0.6900655593423543
tp4175
tp4176
Rp4177
ag1
(g4134
(VDigital Picture Frame Screen Protector Foils
p4178
F4.25
F0.7071067811865476
tp4179
tp4180
Rp4181
ag1
(g4134
(VHealth & Fitness
p4182
F4.0196014016644765
F1.334425419500209
tp4183
tp4184
Rp4185
ag1
(g4134
(VExercise Balls & Accessories
p4186
F4.383838383838384
F0.9970307203031169
tp4187
tp4188
Rp4189
ag1
(g4134
(VPropellers
p4190
F4.0
F0.5345224838248488
tp4191
tp4192
Rp4193
ag1
(g4134
(VBritish Invasion
p4194
F4.6
F0.8806305718527108
tp4195
tp4196
Rp4197
ag1
(g4134
(VPlastic Balls
p4198
F4.923076923076923
F0.2773500981126145
tp4199
tp4200
Rp4201
ag1
(g4134
(VAustralia & New Zealand
p4202
F4.395357272397534
F0.9426710216009307
tp4203
tp4204
Rp4205
ag1
(g4134
(VKids & Family
p4206
F4.1651157241708425
F1.1253233911496854
tp4207
tp4208
Rp4209
ag1
(g4134
(VBoating & Water Sports
p4210
F4.401264066594728
F0.976955382030759
tp4211
tp4212
Rp4213
ag1
(g4134
(VItching & Rash Treatments
p4214
F4.126291618828932
F1.220565123460373
tp4215
tp4216
Rp4217
ag1
(g4134
(VSummer Event
p4218
F4.426153846153846
F0.9781553853069085
tp4219
tp4220
Rp4221
ag1
(g4134
(VChaise Lounges
p4222
F4.8
F0.4472135954999579
tp4223
tp4224
Rp4225
ag1
(g4134
(VStride Piano
p4226
F4.333333333333333
F0.9128709291752769
tp4227
tp4228
Rp4229
ag1
(g4134
(VRain Barrels
p4230
F3.888888888888889
F0.7583952786593615
tp4231
tp4232
Rp4233
ag1
(g4134
(VTable Tennis Sets
p4234
F4.5777777777777775
F0.656744342429481
tp4235
tp4236
Rp4237
ag1
(g4134
(VCases & Sleeves
p4238
F4.333333333333333
F0.816496580927726
tp4239
tp4240
Rp4241
ag1
(g4134
(VBathroom Sink Vanities & Accessories
p4242
F4.066666666666666
F1.0744977685158097
tp4243
tp4244
Rp4245
ag1
(g4134
(VVisualization & Presentation
p4246
F3.7777777777777777
F0.97182531580755
tp4247
tp4248
Rp4249
ag1
(g4134
(VUnderwater Lenses
p4250
F3.857142857142857
F1.4242792663559452
tp4251
tp4252
Rp4253
ag1
(g4134
(VHunting Knives
p4254
F4.490004649000465
F0.8858085244983012
tp4255
tp4256
Rp4257
ag1
(g4134
(VHair Coloring Tools
p4258
F4.157635467980295
F1.2407193398669794
tp4259
tp4260
Rp4261
ag1
(g4134
(VFastening Tool Accessories
p4262
F4.49896480331263
F0.942655803316751
tp4263
tp4264
Rp4265
ag1
(g4134
(VNail Brushes
p4266
F4.166979362101313
F1.200046080547717
tp4267
tp4268
Rp4269
ag1
(g4134
(VDisc Repair Kits
p4270
F3.6809523809523808
F1.497211105882882
tp4271
tp4272
Rp4273
ag1
(g4134
(VTraining Wheels
p4274
F4.1
F1.3703203194062976
tp4275
tp4276
Rp4277
ag1
(g4134
(VSugar Packet Holders
p4278
F4.623529411764705
F0.7233597305075037
tp4279
tp4280
Rp4281
ag1
(g4134
(VG-Strings & Thongs
p4282
F3.9886363636363638
F1.3173843658545972
tp4283
tp4284
Rp4285
ag1
(g4134
(VActive Sweatshirts
p4286
F4.266666666666667
F1.1426929274467317
tp4287
tp4288
Rp4289
ag1
(g4134
(VTechno
p4290
F4.526315789473684
F0.6117752903214978
tp4291
tp4292
Rp4293
ag1
(g4134
(VVocal Jazz
p4294
F4.56984785615491
F0.8477306839299671
tp4295
tp4296
Rp4297
ag1
(g4134
(VCase Fans
p4298
F4.406919477961093
F1.0080412515367247
tp4299
tp4300
Rp4301
ag1
(g4134
(VHome Office Furniture
p4302
F4.186127744510978
F1.0954392702730797
tp4303
tp4304
Rp4305
ag1
(g4134
(VTape Flags
p4306
F4.625514403292181
F0.6457803617470372
tp4307
tp4308
Rp4309
ag1
(g4134
(VNotes
p4310
F3.653179190751445
F1.4742990162722382
tp4311
tp4312
Rp4313
ag1
(g4134
(VEngine Parts
p4314
F4.75
F0.8086075400626399
tp4315
tp4316
Rp4317
ag1
(g4134
(VStyling Products
p4318
F4.118829981718465
F1.2162412967732887
tp4319
tp4320
Rp4321
ag1
(g4134
(VChippers
p4322
F4.4
F0.5477225575051662
tp4323
tp4324
Rp4325
ag1
(g4134
(VDrivers
p4326
F4.409090909090909
F0.7255529348784844
tp4327
tp4328
Rp4329
ag1
(g4134
(VSweatshirts
p4330
F4.301369863013699
F1.0851337944756325
tp4331
tp4332
Rp4333
ag1
(g4134
(VLiterature Organizers
p4334
F4.683333333333334
F0.5039392842990978
tp4335
tp4336
Rp4337
ag1
(g4134
(VPlain Bands
p4338
F4.52
F1.1224972160321822
tp4339
tp4340
Rp4341
ag1
(g4134
(VComposition Notebooks
p4342
F4.311475409836065
F0.9923202373991536
tp4343
tp4344
Rp4345
ag1
(g4134
(VLawn Mowers & Tractors
p4346
F4.6
F0.5477225575051661
tp4347
tp4348
Rp4349
ag1
(g4134
(VCoffee Substitutes
p4350
F4.0
F1.7320508075688772
tp4351
tp4352
Rp4353
ag1
(g4134
(VFoam Rollers
p4354
F4.551433389544688
F0.818577871961084
tp4355
tp4356
Rp4357
ag1
(g4134
(VModern Postbebop
p4358
F4.538461538461538
F0.7516008556101078
tp4359
tp4360
Rp4361
ag1
(g4134
(VLaptop Barebones
p4362
F4.526315789473684
F0.904827856717728
tp4363
tp4364
Rp4365
ag1
(g4134
(VMotor Oils
p4366
F4.7408906882591095
F0.6420780669824587
tp4367
tp4368
Rp4369
ag1
(g4134
(VCuticle Repair
p4370
F4.224489795918367
F1.1773081252453443
tp4371
tp4372
Rp4373
ag1
(g4134
(VHoliday & Wedding
p4374
F4.323529411764706
F1.0850569346171854
tp4375
tp4376
Rp4377
ag1
(g4134
(VJoseph Abboud
p4378
F4.5
F1.0801234497346432
tp4379
tp4380
Rp4381
ag1
(g4134
(VUtilities
p4382
F3.2
F1.4832396974191326
tp4383
tp4384
Rp4385
ag1
(g4134
(VAthena Alexander
p4386
F4.4
F0.8944271909999159
tp4387
tp4388
Rp4389
ag1
(g4134
(VImpact & Dot Matrix Printer Ribbons
p4390
F4.4
F0.8944271909999161
tp4391
tp4392
Rp4393
ag1
(g4134
(VR&B
p4394
F4.403953871499176
F0.9817501888788486
tp4395
tp4396
Rp4397
ag1
(g4134
(VNetwork Adapters
p4398
F4.079670999895445
F1.3393823483537188
tp4399
tp4400
Rp4401
ag1
(g4134
(VCar Cradles & Mounts
p4402
F4.164915572232645
F1.1776073598680055
tp4403
tp4404
Rp4405
ag1
(g4134
(VSun Hats
p4406
F4.5083798882681565
F0.9383748507351005
tp4407
tp4408
Rp4409
ag1
(g4134
(VBeverages
p4410
F4.203463203463204
F1.1968023145707345
tp4411
tp4412
Rp4413
ag1
(g4134
(VAntique & Estate Jewelry
p4414
F4.454545454545454
F0.8567419296420213
tp4415
tp4416
Rp4417
ag1
(g4134
(VMic Stands
p4418
F4.487704918032787
F0.8724477527580582
tp4419
tp4420
Rp4421
ag1
(g4134
(VBass Drum Pedals
p4422
F4.6875
F0.6020797289396148
tp4423
tp4424
Rp4425
ag1
(g4134
(VSmall
p4426
F4.25
F1.105182596419511
tp4427
tp4428
Rp4429
ag1
(g4134
(VThermal Underwear
p4430
F4.275
F1.0905230425484433
tp4431
tp4432
Rp4433
ag1
(g4134
(VCars & Trucks
p4434
F4.76
F0.43588989435406744
tp4435
tp4436
Rp4437
ag1
(g4134
(VPaylak
p4438
F3.9166666666666665
F1.250714081749188
tp4439
tp4440
Rp4441
ag1
(g4134
(VBreakers, Load Centers & Fuses
p4442
F4.720430107526882
F0.5779572610543302
tp4443
tp4444
Rp4445
ag1
(g4134
(VScrub Jackets
p4446
F4.631578947368421
F0.83069758608784
tp4447
tp4448
Rp4449
ag1
(g4134
(VSunglasses & Eyewear Accessories
p4450
F4.5
F0.8548504142651103
tp4451
tp4452
Rp4453
ag1
(g4134
(VPruning Saws
p4454
F4.909090909090909
F0.3015113445777637
tp4455
tp4456
Rp4457
ag1
(g4134
(VAmazon Instant Video
p4458
F4.209529709637451
F1.1185496668776922
tp4459
tp4460
Rp4461
ag1
(g4134
(VBaby Foods
p4462
F4.086890243902439
F1.0542876876798015
tp4463
tp4464
Rp4465
ag1
(g4134
(VRubs & Ointments
p4466
F4.265379975874548
F1.1216019024886605
tp4467
tp4468
Rp4469
ag1
(g4134
(VTackle Storage
p4470
F4.512035010940919
F0.8300599844101116
tp4471
tp4472
Rp4473
ag1
(g4134
(VGun Cases
p4474
F4.526717557251908
F0.7372322906531424
tp4475
tp4476
Rp4477
ag1
(g4134
(VMarinaters
p4478
F4.354838709677419
F1.171866839449313
tp4479
tp4480
Rp4481
ag1
(g4134
(VBaby Boys
p4482
F4.343567251461988
F1.016886483301637
tp4483
tp4484
Rp4485
ag1
(g4134
(VWeb Browsers
p4486
F3.8874045801526718
F1.4319202301004585
tp4487
tp4488
Rp4489
ag1
(g4134
(VBreakfast & Cereal Bars
p4490
F4.011299435028248
F1.2702393321597265
tp4491
tp4492
Rp4493
ag1
(g4134
(VAntivirus & Security
p4494
F4.262820512820513
F1.1894189797843557
tp4495
tp4496
Rp4497
ag1
(g4134
(VGoalkeeper Helmets
p4498
F4.125
F0.9910312089651148
tp4499
tp4500
Rp4501
ag1
(g4134
(VTurn Signal Assemblies & Lenses
p4502
F4.6923076923076925
F0.8548504142651104
tp4503
tp4504
Rp4505
ag1
(g4134
(VComplete Sets
p4506
F4.277777777777778
F0.751903901522118
tp4507
tp4508
Rp4509
ag1
(g4134
(VJerseys
p4510
F4.260869565217392
F1.09616651457157
tp4511
tp4512
Rp4513
ag1
(g4134
(VGable Vents
p4514
F4.218487394957983
F0.9928529672969079
tp4515
tp4516
Rp4517
ag1
(g4134
(VSpecial Occasion
p4518
F3.9575892857142856
F1.2317519910281152
tp4519
tp4520
Rp4521
ag1
(g4134
(VStaplers & Punches
p4522
F4.685897435897436
F0.660444495281944
tp4523
tp4524
Rp4525
ag1
(g4134
(VShort Sets
p4526
F5.0
F0.0
tp4527
tp4528
Rp4529
ag1
(g4134
(VSurf Guitar
p4530
F4.527397260273973
F0.7807618337853679
tp4531
tp4532
Rp4533
ag1
(g4134
(VBlack & Decker
p4534
F4.506944444444445
F0.7932982206094168
tp4535
tp4536
Rp4537
ag1
(g4134
(VTeachers Calendars & Planners
p4538
F4.3125
F0.8590129369261279
tp4539
tp4540
Rp4541
ag1
(g4134
(VMen
p4542
F4.320365535248042
F1.0280991887570379
tp4543
tp4544
Rp4545
ag1
(g4134
(VBlankets & Throws
p4546
F4.28889638879514
F1.1366321794706904
tp4547
tp4548
Rp4549
ag1
(g4134
(VAnne Klein
p4550
F4.4961832061068705
F0.9212189642533564
tp4551
tp4552
Rp4553
ag1
(g4134
(VOrchestral Strings Accessories
p4554
F4.389830508474576
F1.0341904905660868
tp4555
tp4556
Rp4557
ag1
(g4134
(VCarry-Ons
p4558
F4.430921052631579
F0.9237413917126617
tp4559
tp4560
Rp4561
ag1
(g4134
(VTommy Hilfiger
p4562
F4.455284552845528
F0.8736695543097277
tp4563
tp4564
Rp4565
ag1
(g4134
(VSocial Issues
p4566
F4.514285714285714
F0.6584933146039914
tp4567
tp4568
Rp4569
ag1
(g4134
(VReciprocating Saw Blades
p4570
F4.5587188612099645
F0.847856833412583
tp4571
tp4572
Rp4573
ag1
(g4134
(VCar CD Visors
p4574
F4.237288135593221
F0.9709395210194601
tp4575
tp4576
Rp4577
ag1
(g4134
(VUSB Lamps
p4578
F3.874285714285714
F1.3419983796696577
tp4579
tp4580
Rp4581
ag1
(g4134
(VDeviled Egg Plates
p4582
F4.568181818181818
F0.8733183780438699
tp4583
tp4584
Rp4585
ag1
(g4134
(VCarry Bags
p4586
F4.071428571428571
F0.9972489631508744
tp4587
tp4588
Rp4589
ag1
(g4134
(VThrow Blankets
p4590
F4.666666666666667
F0.5163977794943222
tp4591
tp4592
Rp4593
ag1
(g4134
(VSuper Nintendo
p4594
F4.392361111111111
F1.0489466479960068
tp4595
tp4596
Rp4597
ag1
(g4134
(VBody Washes
p4598
F4.273940345368917
F1.022477963229308
tp4599
tp4600
Rp4601
ag1
(g4134
(VIce & Snow Grips
p4602
F4.5
F0.9642365197998375
tp4603
tp4604
Rp4605
ag1
(g4134
(VPower Supplies
p4606
F4.347389558232932
F1.1878618516458694
tp4607
tp4608
Rp4609
ag1
(g4134
(VProductivity
p4610
F3.821640834401585
F1.4441618864337193
tp4611
tp4612
Rp4613
ag1
(g4134
(VKnits & Tees
p4614
F4.091275167785235
F1.1288947438239982
tp4615
tp4616
Rp4617
ag1
(g4134
(VTurntables
p4618
F4.156446540880503
F1.1853641754557118
tp4619
tp4620
Rp4621
ag1
(g4134
(VJackets & Coats
p4622
F4.300319488817891
F1.0488393097913418
tp4623
tp4624
Rp4625
ag1
(g4134
(VIsrael
p4626
F4.549763033175355
F0.9212504135856378
tp4627
tp4628
Rp4629
ag1
(g4134
(VComputer Recording
p4630
F4.295202952029521
F1.0994674869927785
tp4631
tp4632
Rp4633
ag1
(g4134
(VTags & Tickets
p4634
F4.666666666666667
F0.5
tp4635
tp4636
Rp4637
ag1
(g4134
(VClothing Sets
p4638
F4.666666666666667
F0.49999999999999994
tp4639
tp4640
Rp4641
ag1
(g4134
(VGames
p4642
F4.009115644872004
F1.29706346500145
tp4643
tp4644
Rp4645
ag1
(g4134
(VVocal Pop
p4646
F4.509803921568627
F0.9296030996256681
tp4647
tp4648
Rp4649
ag1
(g4134
(VJewelry: International Shipping Available
p4650
F4.302895322939866
F1.1007366000451557
tp4651
tp4652
Rp4653
ag1
(g4134
(VBasic Cases
p4654
F4.174731182795699
F1.208285048211394
tp4655
tp4656
Rp4657
ag1
(g4134
(VHead Covers
p4658
F4.454545454545454
F0.7111130839619098
tp4659
tp4660
Rp4661
ag1
(g4134
(VColloidal Minerals
p4662
F4.357142857142857
F1.1584461765672476
tp4663
tp4664
Rp4665
ag1
(g4134
(VSpring Event
p4666
F4.25
F1.164964745021435
tp4667
tp4668
Rp4669
ag1
(g4134
(VKeyboards
p4670
F4.233463035019455
F1.1490352915238569
tp4671
tp4672
Rp4673
ag1
(g4134
(VDiagnostic & Test Tools
p4674
F3.526315789473684
F1.4669856112538155
tp4675
tp4676
Rp4677
ag1
(g4134
(VMystery
p4678
F4.117449664429531
F1.065038627751398
tp4679
tp4680
Rp4681
ag1
(g4134
(VEau de Toilette
p4682
F4.301408450704225
F1.1288613979500761
tp4683
tp4684
Rp4685
ag1
(g4134
(VTraditional Pop
p4686
F4.514631685166498
F0.8793580306253755
tp4687
tp4688
Rp4689
ag1
(g4134
(VTeakettles
p4690
F4.066447007138935
F1.2750694685096098
tp4691
tp4692
Rp4693
ag1
(g4134
(VNews, Politics & Opinion
p4694
F3.8
F1.3890326722960415
tp4695
tp4696
Rp4697
ag1
(g4134
(VHair Cutting Kits
p4698
F4.02112676056338
F1.074978540832525
tp4699
tp4700
Rp4701
ag1
(g4134
(VShampoo Plus Conditioner
p4702
F4.305882352941176
F1.1652051670124421
tp4703
tp4704
Rp4705
ag1
(g4134
(VHalf Slips
p4706
F3.8
F1.3038404810405297
tp4707
tp4708
Rp4709
ag1
(g4134
(VA
p4710
F4.7
F0.5163977794943222
tp4711
tp4712
Rp4713
ag1
(g4134
(VBike Frames
p4714
F4.5
F1.224744871391589
tp4715
tp4716
Rp4717
ag1
(g4134
(VPoint & Shoot Digital Cameras
p4718
F4.189868246348688
F1.1426288702188698
tp4719
tp4720
Rp4721
ag1
(g4134
(VWork Wear & Uniforms
p4722
F4.34375
F1.03795465674166
tp4723
tp4724
Rp4725
ag1
(g4134
(VFace
p4726
F4.135235824454213
F1.199961095327355
tp4727
tp4728
Rp4729
ag1
(g4134
(VIce Cream Machines
p4730
F4.2975420439844765
F1.1318086049751894
tp4731
tp4732
Rp4733
ag1
(g4134
(VMore Accessories
p4734
F4.091836734693878
F1.2041378087065542
tp4735
tp4736
Rp4737
ag1
(g4134
(VGlass Markers
p4738
F4.558659217877095
F0.7721780017335269
tp4739
tp4740
Rp4741
ag1
(g4134
(VToy Figures
p4742
F4.833333333333333
F0.408248290463863
tp4743
tp4744
Rp4745
ag1
(g4134
(VBalaclavas
p4746
F4.0588235294117645
F1.1209239886072981
tp4747
tp4748
Rp4749
ag1
(g4134
(VPrinter Trays & Drawers
p4750
F3.6923076923076925
F1.4366984945013914
tp4751
tp4752
Rp4753
ag1
(g4134
(VMade in USA
p4754
F4.352941176470588
F0.9963167462326072
tp4755
tp4756
Rp4757
ag1
(g4134
(VBarrel Fuel Pumps
p4758
F4.875
F0.3535533905932738
tp4759
tp4760
Rp4761
ag1
(g4134
(VOther Sports
p4762
F4.258928571428571
F1.0315518150444674
tp4763
tp4764
Rp4765
ag1
(g4134
(VKindle Fire HD 8.9" Covers
p4766
F4.625
F0.6191391873668902
tp4767
tp4768
Rp4769
ag1
(g4134
(VThe Highest Heel
p4770
F3.5789473684210527
F1.5389675281277313
tp4771
tp4772
Rp4773
ag1
(g4134
(VLingerie, Sleep & Lounge
p4774
F4.0393988627132416
F1.256786261363506
tp4775
tp4776
Rp4777
ag1
(g4134
(VComputer Cases
p4778
F4.449120784087634
F0.8893309635608158
tp4779
tp4780
Rp4781
ag1
(g4134
(VTeeth Whitening
p4782
F4.014726184997699
F1.2049485065146075
tp4783
tp4784
Rp4785
ag1
(g4134
(VTripod Mount Rings
p4786
F4.033783783783784
F1.2958097856366004
tp4787
tp4788
Rp4789
ag1
(g4134
(VFaucets
p4790
F3.142857142857143
F1.6761634196950517
tp4791
tp4792
Rp4793
ag1
(g4134
(VKeen
p4794
F4.8
F0.4472135954999579
tp4795
tp4796
Rp4797
ag1
(g4134
(VFlax Seed Oil
p4798
F4.708333333333333
F0.6509676376351032
tp4799
tp4800
Rp4801
ag1
(g4134
(VSleeves
p4802
F4.364324324324325
F0.9852312645240041
tp4803
tp4804
Rp4805
ag1
(g4134
(VTraditional
p4806
F4.833333333333333
F0.408248290463863
tp4807
tp4808
Rp4809
ag1
(g4134
(VActive Skirts
p4810
F4.6
F0.7367883976130074
tp4811
tp4812
Rp4813
ag1
(g4134
(VReligion & Spirituality
p4814
F3.9
F1.1652874052533586
tp4815
tp4816
Rp4817
ag1
(g4134
(VMitt Accessories
p4818
F4.0
F1.0
tp4819
tp4820
Rp4821
ag1
(g4134
(VRegional & Travel
p4822
F5.0
F0.0
tp4823
tp4824
Rp4825
ag1
(g4134
(VLatin Music
p4826
F4.363636363636363
F1.028396270734175
tp4827
tp4828
Rp4829
ag1
(g4134
(VPuffs, Sponges & Wedges
p4830
F4.179545454545455
F1.2418708675337047
tp4831
tp4832
Rp4833
ag1
(g4134
(VSurf, Skate & Street
p4834
F4.391489361702128
F0.9638319356825392
tp4835
tp4836
Rp4837
ag1
(g4134
(VHair Pins
p4838
F4.253869969040248
F1.1355118452668398
tp4839
tp4840
Rp4841
ag1
(g4134
(VSkate Accessories
p4842
F4.4
F0.9818872461248104
tp4843
tp4844
Rp4845
ag1
(g4134
(VPackaged Meals & Side Dishes
p4846
F4.714285714285714
F0.7559289460184544
tp4847
tp4848
Rp4849
ag1
(g4134
(VBubble Wrap
p4850
F4.645161290322581
F0.8702133560422831
tp4851
tp4852
Rp4853
ag1
(g4134
(VPower Tool Accessories
p4854
F4.400313971742543
F1.0938075679050543
tp4855
tp4856
Rp4857
ag1
(g4134
(VBaby & Toddler Toys
p4858
F4.573529411764706
F0.8519718387642926
tp4859
tp4860
Rp4861
ag1
(g4134
(VBorn
p4862
F3.5
F1.760681686165901
tp4863
tp4864
Rp4865
ag1
(g4134
(VSwim Season
p4866
F4.666666666666667
F0.8164965809277261
tp4867
tp4868
Rp4869
ag1
(g4134
(VBats
p4870
F3.6923076923076925
F1.8878830906871762
tp4871
tp4872
Rp4873
ag1
(g4134
(VHealth & Personal Care
p4874
F4.302942388616546
F1.105999613658028
tp4875
tp4876
Rp4877
ag1
(g4134
(VMP3 Player Accessories
p4878
F4.036129675810474
F1.2527009297060152
tp4879
tp4880
Rp4881
ag1
(g4134
(VShoulder Bags
p4882
F4.246376811594203
F1.1431761099353974
tp4883
tp4884
Rp4885
ag1
(g4134
(VMinidisc Players
p4886
F4.176470588235294
F0.9916242739135493
tp4887
tp4888
Rp4889
ag1
(g4134
(VHair Extensions & Wigs
p4890
F3.9093500570125426
F1.330365586978673
tp4891
tp4892
Rp4893
ag1
(g4134
(VFountain Pens
p4894
F4.389067524115756
F0.8978878972739007
tp4895
tp4896
Rp4897
ag1
(g4134
(VScooters & Equipment
p4898
F4.496259351620948
F0.9113786109891864
tp4899
tp4900
Rp4901
ag1
(g4134
(VPlant Container Accessories
p4902
F4.229166666666667
F1.0807323702658076
tp4903
tp4904
Rp4905
ag1
(g4134
(VN
p4906
F4.434782608695652
F0.9622012274186914
tp4907
tp4908
Rp4909
ag1
(g4134
(VCanopies
p4910
F3.5
F1.6052797503622462
tp4911
tp4912
Rp4913
ag1
(g4134
(VPDAs, Handhelds & Accessories
p4914
F3.9479851386110316
F1.28261156352108
tp4915
tp4916
Rp4917
ag1
(g4134
(VNail Files & Buffers
p4918
F4.292596944770858
F1.146936256884122
tp4919
tp4920
Rp4921
ag1
(g4134
(VBinders & Binding Systems
p4922
F4.440329218106996
F0.6676861911446529
tp4923
tp4924
Rp4925
ag1
(g4134
(VDrawstring Bags
p4926
F4.504347826086956
F0.8519730767869335
tp4927
tp4928
Rp4929
ag1
(g4134
(VProfessional Photo Albums
p4930
F4.549382716049383
F0.8920105640671998
tp4931
tp4932
Rp4933
ag1
(g4134
(VDiving Lures
p4934
F4.6923076923076925
F0.4803844614152614
tp4935
tp4936
Rp4937
ag1
(g4134
(VDownloadable Content
p4938
F4.111111111111111
F1.2313975269103985
tp4939
tp4940
Rp4941
ag1
(g4134
(VHome Entertainment Furniture
p4942
F4.322812051649929
F0.9862940798904437
tp4943
tp4944
Rp4945
ag1
(g4134
(VStride Rite
p4946
F4.5
F0.9724296043145909
tp4947
tp4948
Rp4949
ag1
(g4134
(VTouch Screen Tablet Accessories
p4950
F4.2722719141323795
F1.0638585341204698
tp4951
tp4952
Rp4953
ag1
(g4134
(VFan Shop
p4954
F4.355769230769231
F1.0528945822037743
tp4955
tp4956
Rp4957
ag1
(g4134
(VCards & Card Stock
p4958
F4.419939577039275
F0.8921006852937838
tp4959
tp4960
Rp4961
ag1
(g4134
(VWorld Music
p4962
F4.42910447761194
F0.9354703699281898
tp4963
tp4964
Rp4965
ag1
(g4134
(VCleaning & Care
p4966
F4.348920863309353
F1.0832479886962079
tp4967
tp4968
Rp4969
ag1
(g4134
(VJessica Simpson
p4970
F4.201492537313433
F1.0654945625696302
tp4971
tp4972
Rp4973
ag1
(g4134
(VCradles, Mounts & Stands
p4974
F4.37037037037037
F0.966681402775979
tp4975
tp4976
Rp4977
ag1
(g4134
(VEPA
p4978
F4.583333333333333
F1.00849802830366
tp4979
tp4980
Rp4981
ag1
(g4134
(VKids' Watches
p4982
F4.258064516129032
F1.141159077110061
tp4983
tp4984
Rp4985
ag1
(g4134
(VAnchors
p4986
F5.0
F0.0
tp4987
tp4988
Rp4989
ag1
(g4134
(VVocal Blues
p4990
F4.5
F0.5477225575051661
tp4991
tp4992
Rp4993
ag1
(g4134
(VSpecial Appliances
p4994
F4.777777777777778
F0.4277926319464985
tp4995
tp4996
Rp4997
ag1
(g4134
(VCream & Sugar
p4998
F4.445544554455446
F0.9324724931573314
tp4999
tp5000
Rp5001
ag1
(g4134
(VCarpet Sweepers
p5002
F3.7903225806451615
F1.4365700777837531
tp5003
tp5004
Rp5005
ag1
(g4134
(VBra Extenders
p5006
F4.541666666666667
F0.8760607955401938
tp5007
tp5008
Rp5009
ag1
(g4134
(VBow Ties
p5010
F4.36734693877551
F0.9779818806117856
tp5011
tp5012
Rp5013
ag1
(g4134
(VSnack Foods
p5014
F3.95
F1.1972189997378648
tp5015
tp5016
Rp5017
ag1
(g4134
(VStandard Skateboards
p5018
F4.303030303030303
F0.9180430438182245
tp5019
tp5020
Rp5021
ag1
(g4134
(VLEGO
p5022
F4.411764705882353
F1.1213175023946031
tp5023
tp5024
Rp5025
ag1
(g4134
(VWheel
p5026
F5.0
F0.0
tp5027
tp5028
Rp5029
ag1
(g4134
(VProgramming & Web Development
p5030
F3.1666666666666665
F1.689065178277792
tp5031
tp5032
Rp5033
ag1
(g4134
(VUruguay
p5034
F3.7777777777777777
F1.0032626514091005
tp5035
tp5036
Rp5037
ag1
(g4134
(VValentine's Day
p5038
F4.666666666666667
F0.5163977794943222
tp5039
tp5040
Rp5041
ag1
(g4134
(VLips
p5042
F4.187898089171974
F1.1606969694836264
tp5043
tp5044
Rp5045
ag1
(g4134
(VBabydolls, Chemises & Negligees
p5046
F3.8333333333333335
F0.9831920802501751
tp5047
tp5048
Rp5049
ag1
(g4134
(VHandlebar Bags
p5050
F4.2298850574712645
F0.9965457582448797
tp5051
tp5052
Rp5053
ag1
(g4134
(VCoffee
p5054
F4.533333333333333
F0.7960577021601759
tp5055
tp5056
Rp5057
ag1
(g4134
(VSoils, Fertilizers & Mulches
p5058
F4.28515111695138
F0.949461209832042
tp5059
tp5060
Rp5061
ag1
(g4134
(VOn-Dash Video
p5062
F3.2988505747126435
F1.514410809534079
tp5063
tp5064
Rp5065
ag1
(g4134
(VCD Racks
p5066
F4.427947598253275
F0.9413995166100267
tp5067
tp5068
Rp5069
ag1
(g4134
(VCheese Slicers
p5070
F4.256756756756757
F1.1110997983709754
tp5071
tp5072
Rp5073
ag1
(g4134
(VBall
p5074
F4.386363636363637
F0.8948407443320302
tp5075
tp5076
Rp5077
ag1
(g4134
(VCrops, Whips & Spurs
p5078
F5.0
F0.0
tp5079
tp5080
Rp5081
ag1
(g4134
(VChoir
p5082
F4.903225806451613
F0.30053715351876464
tp5083
tp5084
Rp5085
ag1
(g4134
(VHeadphone & In-Ear Audio Monitors
p5086
F4.8
F0.4472135954999579
tp5087
tp5088
Rp5089
ag1
(g4134
(VFashion Sweatshirts
p5090
F3.625
F1.438976085247091
tp5091
tp5092
Rp5093
ag1
(g4134
(VRochester
p5094
F4.4
F0.8944271909999159
tp5095
tp5096
Rp5097
ag1
(g4134
(VMen's Athletic Watches
p5098
F4.324090909090909
F1.0776836658276467
tp5099
tp5100
Rp5101
ag1
(g4134
(VServing Dishes, Trays & Platters
p5102
F4.378103837471783
F1.0535574465402435
tp5103
tp5104
Rp5105
ag1
(g4134
(VCookbook Stands & Recipe Holders
p5106
F4.560855263157895
F0.874071270135926
tp5107
tp5108
Rp5109
ag1
(g4134
(VCasual Socks
p5110
F4.404891304347826
F0.9318336142310105
tp5111
tp5112
Rp5113
ag1
(g4134
(VCell Phones & Accessories
p5114
F4.215068493150685
F1.1742751589543952
tp5115
tp5116
Rp5117
ag1
(g4134
(VJuices
p5118
F4.75
F0.4522670168666454
tp5119
tp5120
Rp5121
ag1
(g4134
(VPortable Recorders
p5122
F4.282608695652174
F1.1862741575249771
tp5123
tp5124
Rp5125
ag1
(g4134
(VMaterial Handling Products
p5126
F4.190476190476191
F0.8621610748180847
tp5127
tp5128
Rp5129
ag1
(g4134
(VExterior Care
p5130
F4.486875529212532
F0.9157877210949348
tp5131
tp5132
Rp5133
ag1
(g4134
(VBath & Body
p5134
F4.211208406304729
F1.1595919906556185
tp5135
tp5136
Rp5137
ag1
(g4134
(VLeggings
p5138
F3.9434204886412343
F1.2756008748748204
tp5139
tp5140
Rp5141
ag1
(g4134
(VBlemish Tools
p5142
F3.840659340659341
F1.3304324077522138
tp5143
tp5144
Rp5145
ag1
(g4134
(VVegetarian
p5146
F4.190476190476191
F1.0304876330673562
tp5147
tp5148
Rp5149
ag1
(g4134
(VBoxer Briefs
p5150
F4.388888888888889
F0.9539889861218028
tp5151
tp5152
Rp5153
ag1
(g4134
(VAcids & Peels
p5154
F4.057553956834532
F1.2897015954866833
tp5155
tp5156
Rp5157
ag1
(g4134
(VSugar Bowls
p5158
F4.524229074889868
F0.8377612921893285
tp5159
tp5160
Rp5161
ag1
(g4134
(VBarrels
p5162
F4.2592592592592595
F1.1297580609817646
tp5163
tp5164
Rp5165
ag1
(g4134
(VDiplomat
p5166
F4.1506849315068495
F1.1627461851237297
tp5167
tp5168
Rp5169
ag1
(g4134
(VBinoculars
p5170
F4.142857142857143
F1.01418510567422
tp5171
tp5172
Rp5173
ag1
(g4134
(VTactical & Duty
p5174
F4.424242424242424
F1.0009465217452627
tp5175
tp5176
Rp5177
ag1
(g4134
(VMassage & Relaxation
p5178
F4.3186918326519965
F1.1074930282789233
tp5179
tp5180
Rp5181
ag1
(g4134
(VWashes
p5182
F4.255635245901639
F1.068499144348579
tp5183
tp5184
Rp5185
ag1
(g4134
(VOne-Piece Suits
p5186
F3.8294573643410854
F1.238219683455292
tp5187
tp5188
Rp5189
ag1
(g4134
(VBoys
p5190
F4.430965682362331
F0.9353197892946985
tp5191
tp5192
Rp5193
ag1
(g4134
(VPlastic Bats
p5194
F5.0
F0.0
tp5195
tp5196
Rp5197
ag1
(g4134
(VRug Making Supplies
p5198
F4.333333333333333
F1.3228756555322954
tp5199
tp5200
Rp5201
ag1
(g4134
(VThermal Carafes
p5202
F4.373557187827912
F0.9685244132212302
tp5203
tp5204
Rp5205
ag1
(g4134
(VWomen's Luxury Brands
p5206
F3.7857142857142856
F1.3114039117603011
tp5207
tp5208
Rp5209
ag1
(g4134
(VSerenades & Divertimentos
p5210
F4.517241379310345
F0.918247467077695
tp5211
tp5212
Rp5213
ag1
(g4134
(VStrength Training Equipment
p5214
F4.364562118126273
F0.9654376468165224
tp5215
tp5216
Rp5217
ag1
(g4134
(VFilm SLR Lenses
p5218
F4.293233082706767
F1.000241139885914
tp5219
tp5220
Rp5221
ag1
(g4134
(VOils
p5222
F4.575539568345324
F0.9323370764630347
tp5223
tp5224
Rp5225
ag1
(g4134
(VSunscreens
p5226
F4.06371191135734
F1.275337238666678
tp5227
tp5228
Rp5229
ag1
(g4134
(VHome Audio Crossovers & Parts
p5230
F4.5675675675675675
F0.8987812903080524
tp5231
tp5232
Rp5233
ag1
(g4134
(VTravel Wallets
p5234
F4.518518518518518
F0.7529618628798984
tp5235
tp5236
Rp5237
ag1
(g4134
(VCables
p5238
F4.868421052631579
F0.3425699874501046
tp5239
tp5240
Rp5241
ag1
(g4134
(VGarlic Peelers
p5242
F4.291005291005291
F1.1322043764143719
tp5243
tp5244
Rp5245
ag1
(g4134
(VGeography & Cultures
p5246
F4.824561403508772
F0.38372269644812995
tp5247
tp5248
Rp5249
ag1
(g4134
(VArts, Crafts & Sewing
p5250
F4.413793103448276
F0.9255740182744779
tp5251
tp5252
Rp5253
ag1
(g4134
(VFlat Front
p5254
F4.631578947368421
F0.7857189041263832
tp5255
tp5256
Rp5257
ag1
(g4134
(VCar Video
p5258
F3.3962264150943398
F1.5359740412658902
tp5259
tp5260
Rp5261
ag1
(g4134
(VWork Wear
p5262
F4.525
F0.6400120191179105
tp5263
tp5264
Rp5265
ag1
(g4134
(VSleds & Chutes
p5266
F3.9
F1.1972189997378646
tp5267
tp5268
Rp5269
ag1
(g4134
(VSword & Sorcery
p5270
F3.857142857142857
F0.8997354108424372
tp5271
tp5272
Rp5273
ag1
(g4134
(VCell Phones
p5274
F4.114629512349588
F1.2530253639244453
tp5275
tp5276
Rp5277
ag1
(g4134
(VHair Loss Products
p5278
F3.9043358568479007
F1.3235789937465883
tp5279
tp5280
Rp5281
ag1
(g4134
(VInstant Cameras
p5282
F4.513189448441247
F0.9279027453825088
tp5283
tp5284
Rp5285
ag1
(g4134
(VIntimates
p5286
F3.761764705882353
F1.345486216879459
tp5287
tp5288
Rp5289
ag1
(g4134
(VPerky-Pet
p5290
F4.064444444444445
F1.079829335082955
tp5291
tp5292
Rp5293
ag1
(g4134
(VFloor Polishers
p5294
F3.836734693877551
F1.1814186610166435
tp5295
tp5296
Rp5297
ag1
(g4134
(VCompactFlash Cards
p5298
F4.495941345902069
F1.0770095049589843
tp5299
tp5300
Rp5301
ag1
(g4134
(VCD-R Discs
p5302
F4.443537999141262
F1.0917578685350493
tp5303
tp5304
Rp5305
ag1
(g4134
(VCough Syrups
p5306
F4.051339285714286
F1.0911724988225977
tp5307
tp5308
Rp5309
ag1
(g4134
(VWalk-Behind Lawn Mowers
p5310
F4.30939226519337
F0.962271713617692
tp5311
tp5312
Rp5313
ag1
(g4134
(VBundles
p5314
F4.164185277088503
F1.1556231261443812
tp5315
tp5316
Rp5317
ag1
(g4134
(VFashion Hoodies & Sweatshirts
p5318
F4.181818181818182
F1.0792330079996943
tp5319
tp5320
Rp5321
ag1
(g4134
(VMinnetonka
p5322
F4.333333333333333
F1.0290879080177409
tp5323
tp5324
Rp5325
ag1
(g4134
(VTravel Covers
p5326
F4.5625
F0.8920949127381756
tp5327
tp5328
Rp5329
ag1
(g4134
(VTecnica
p5330
F4.4
F0.5477225575051661
tp5331
tp5332
Rp5333
ag1
(g4134
(VRidge Filler
p5334
F4.454545454545454
F1.2993504870941053
tp5335
tp5336
Rp5337
ag1
(g4134
(VPlant Covers
p5338
F4.142857142857143
F0.8997354108424375
tp5339
tp5340
Rp5341
ag1
(g4134
(VNetwork Attached Storage
p5342
F3.7289619820589492
F1.4315584863707782
tp5343
tp5344
Rp5345
ag1
(g4134
(VDesk Accessories & Workspace Organizers
p5346
F4.323458491215983
F0.9160624387627672
tp5347
tp5348
Rp5349
ag1
(g4134
(VSupergroups
p5350
F4.289615384615384
F1.0601239909813285
tp5351
tp5352
Rp5353
ag1
(g4134
(VLicense Plate Covers & Frames
p5354
F4.23015873015873
F1.1254346602993772
tp5355
tp5356
Rp5357
ag1
(g4134
(VShower Mirrors
p5358
F4.131868131868132
F1.2562384726611124
tp5359
tp5360
Rp5361
ag1
(g4134
(VPlatters
p5362
F4.6245847176079735
F0.792838935071727
tp5363
tp5364
Rp5365
ag1
(g4134
(VAutomatic Irrigation Equipment
p5366
F4.5
F0.9109867766419524
tp5367
tp5368
Rp5369
ag1
(g4134
(VEuropean Jazz
p5370
F4.551020408163265
F0.9095421866356364
tp5371
tp5372
Rp5373
ag1
(g4134
(VComputer & Monitor Mounts
p5374
F4.358823529411764
F1.0946686698676753
tp5375
tp5376
Rp5377
ag1
(g4134
(VTrellises
p5378
F4.8
F0.4472135954999579
tp5379
tp5380
Rp5381
ag1
(g4134
(VConspiracies
p5382
F4.142857142857143
F0.6900655593423544
tp5383
tp5384
Rp5385
ag1
(g4134
(VAlbum-Oriented Rock (AOR)
p5386
F4.302234137622878
F0.9883050565224752
tp5387
tp5388
Rp5389
ag1
(g4134
(VPurchase Circles
p5390
F4.833333333333333
F0.408248290463863
tp5391
tp5392
Rp5393
ag1
(g4134
(VVitamin C
p5394
F4.466197183098592
F1.0217429955572064
tp5395
tp5396
Rp5397
ag1
(g4134
(VBrake Levers
p5398
F4.593406593406593
F0.7863198002362524
tp5399
tp5400
Rp5401
ag1
(g4134
(VSIM Cards & Tools
p5402
F4.170168067226891
F1.2635939152510836
tp5403
tp5404
Rp5405
ag1
(g4134
(VHouse
p5406
F4.366844207723036
F0.9905848720682937
tp5407
tp5408
Rp5409
ag1
(g4134
(VColor Refreshers
p5410
F3.7478991596638656
F1.3944948264557844
tp5411
tp5412
Rp5413
ag1
(g4134
(VComputer Components
p5414
F3.4285714285714284
F1.7728105208558367
tp5415
tp5416
Rp5417
ag1
(g4134
(VS
p5418
F4.375
F0.9259559202236265
tp5419
tp5420
Rp5421
ag1
(g4134
(VHeelys
p5422
F4.4
F0.8944271909999159
tp5423
tp5424
Rp5425
ag1
(g4134
(VHair Sprays
p5426
F4.081908190819082
F1.1964025148793371
tp5427
tp5428
Rp5429
ag1
(g4134
(VData Cables
p5430
F4.039860888175495
F1.4001491299131246
tp5431
tp5432
Rp5433
ag1
(g4134
(VIced Tea Machines
p5434
F4.262820512820513
F1.222049196136239
tp5435
tp5436
Rp5437
ag1
(g4134
(VToilets
p5438
F4.564285714285714
F0.9072903312160839
tp5439
tp5440
Rp5441
ag1
(g4134
(VMusic
p5442
F3.9905225409836067
F1.405429655519092
tp5443
tp5444
Rp5445
ag1
(g4134
(VRemote Controls
p5446
F4.228048780487805
F1.1706394306080063
tp5447
tp5448
Rp5449
ag1
(g4134
(VHosiery
p5450
F4.105145413870246
F1.225713085715207
tp5451
tp5452
Rp5453
ag1
(g4134
(VVeranda
p5454
F4.574468085106383
F0.8532465073003036
tp5455
tp5456
Rp5457
ag1
(g4134
(VPhilly Soul
p5458
F4.730569948186528
F0.562875905244604
tp5459
tp5460
Rp5461
ag1
(g4134
(VLawn Care
p5462
F4.28
F1.0214368964029708
tp5463
tp5464
Rp5465
ag1
(g4134
(VStarter Sets
p5466
F4.230769230769231
F1.1657505560686465
tp5467
tp5468
Rp5469
ag1
(g4134
(VKeyboard Accessories
p5470
F4.5
F0.8733691788858461
tp5471
tp5472
Rp5473
ag1
(g4134
(VRecoil Springs
p5474
F4.75
F0.4522670168666455
tp5475
tp5476
Rp5477
ag1
(g4134
(VPaintballs
p5478
F4.153846153846154
F1.317339977145086
tp5479
tp5480
Rp5481
ag1
(g4134
(VAAAA
p5482
F4.705882352941177
F0.6859943405700354
tp5483
tp5484
Rp5485
ag1
(g4134
(VSelf Tanners
p5486
F3.8333333333333335
F1.1146408580454255
tp5487
tp5488
Rp5489
ag1
(g4134
(VBarbecue Forks & Claws
p5490
F4.790697674418604
F0.6746476870642407
tp5491
tp5492
Rp5493
ag1
(g4134
(VPlaywear
p5494
F4.8
F0.4472135954999579
tp5495
tp5496
Rp5497
ag1
(g4134
(VMounts
p5498
F4.18752688172043
F1.098081232077927
tp5499
tp5500
Rp5501
ag1
(g4134
(VEyes
p5502
F4.111056227875196
F1.236392596005399
tp5503
tp5504
Rp5505
ag1
(g4134
(VCombinations
p5506
F4.3053470919324575
F1.0398487064519046
tp5507
tp5508
Rp5509
ag1
(g4134
(VStove Accessories
p5510
F4.362329007365837
F1.0531013738695798
tp5511
tp5512
Rp5513
ag1
(g4134
(VInstant Coffee
p5514
F4.555555555555555
F0.8915558282417286
tp5515
tp5516
Rp5517
ag1
(g4134
(VKindle Paperwhite Covers
p5518
F4.4766260162601625
F0.8782910601952085
tp5519
tp5520
Rp5521
ag1
(g4134
(VGloves
p5522
F4.233644859813084
F1.086620511879164
tp5523
tp5524
Rp5525
ag1
(g4134
(VDodgeballs
p5526
F4.705882352941177
F0.9851843661437781
tp5527
tp5528
Rp5529
ag1
(g4134
(VLighting & Ceiling Fans
p5530
F4.208333333333333
F1.0760637366188428
tp5531
tp5532
Rp5533
ag1
(g4134
(VMoss Control
p5534
F4.5
F1.1677484162422846
tp5535
tp5536
Rp5537
ag1
(g4134
(VCar Surfboard Racks
p5538
F4.542857142857143
F0.700540007794707
tp5539
tp5540
Rp5541
ag1
(g4134
(VSound Editing
p5542
F4.571428571428571
F1.1338934190276817
tp5543
tp5544
Rp5545
ag1
(g4134
(VFoam Pads
p5546
F4.342592592592593
F1.0245768402744913
tp5547
tp5548
Rp5549
ag1
(g4134
(VAccessories
p5550
F4.312214298774913
F1.1332194610676738
tp5551
tp5552
Rp5553
ag1
(g4134
(VRC Vehicles & Parts
p5554
F4.290802524797114
F1.1455690896863715
tp5555
tp5556
Rp5557
ag1
(g4134
(VCorn & Callus Remover Cushions
p5558
F4.269230769230769
F1.1395799813688599
tp5559
tp5560
Rp5561
ag1
(g4134
(VContemporary Blues
p5562
F4.548387096774194
F0.7383099302908428
tp5563
tp5564
Rp5565
ag1
(g4134
(VSpecial Interest
p5566
F4.434262948207171
F1.003325148982957
tp5567
tp5568
Rp5569
ag1
(g4134
(VGirls & Women
p5570
F4.833333333333333
F0.408248290463863
tp5571
tp5572
Rp5573
ag1
(g4134
(VExfoliators & Scrubs
p5574
F4.296419098143236
F1.064134698408516
tp5575
tp5576
Rp5577
ag1
(g4134
(VSocks & Tights
p5578
F4.396551724137931
F1.0076837287947429
tp5579
tp5580
Rp5581
ag1
(g4134
(VSheet Music Stands
p5582
F4.558620689655172
F0.7534721670462752
tp5583
tp5584
Rp5585
ag1
(g4134
(VMaternity
p5586
F4.154639175257732
F1.2540159448931318
tp5587
tp5588
Rp5589
ag1
(g4134
(VYogurt Makers
p5590
F4.464788732394366
F0.9590127968097805
tp5591
tp5592
Rp5593
ag1
(g4134
(VDJ, Electronic Music & Karaoke
p5594
F4.481481481481482
F0.9015198121042467
tp5595
tp5596
Rp5597
ag1
(g4134
(VTurmeric
p5598
F4.7101449275362315
F0.7092135096122598
tp5599
tp5600
Rp5601
ag1
(g4134
(VSinkers
p5602
F4.0
F1.4605934866804429
tp5603
tp5604
Rp5605
ag1
(g4134
(VKindle Fire HD 7" (Previous Generation) Power Adapters
p5606
F4.476520642924677
F1.004011623661301
tp5607
tp5608
Rp5609
ag1
(g4134
(VOrganized Crime
p5610
F4.461538461538462
F0.8492077756084466
tp5611
tp5612
Rp5613
ag1
(g4134
(VBluetooth Headsets
p5614
F4.409090909090909
F1.1405550406998346
tp5615
tp5616
Rp5617
ag1
(g4134
(VDiapering
p5618
F4.0
F1.0
tp5619
tp5620
Rp5621
ag1
(g4134
(VColored Paper
p5622
F4.916666666666667
F0.28867513459481287
tp5623
tp5624
Rp5625
ag1
(g4134
(VTraditional Vocal Pop
p5626
F4.31595744680851
F1.0266075094684128
tp5627
tp5628
Rp5629
ag1
(g4134
(VConsoles
p5630
F4.322830292979547
F1.1476859916603972
tp5631
tp5632
Rp5633
ag1
(g4134
(VJewelry Trays
p5634
F4.487903225806452
F0.9564689397477069
tp5635
tp5636
Rp5637
ag1
(g4134
(VDVI-HDMI Adapters
p5638
F4.241077676696991
F1.2854558483671952
tp5639
tp5640
Rp5641
ag1
(g4134
(VR
p5642
F4.3076923076923075
F0.9473309334313418
tp5643
tp5644
Rp5645
ag1
(g4134
(VGas Cans
p5646
F4.404255319148936
F1.2097354088733456
tp5647
tp5648
Rp5649
ag1
(g4134
(VSpecialty Tools & Gadgets
p5650
F4.655172413793103
F0.48372528131497444
tp5651
tp5652
Rp5653
ag1
(g4134
(VFairway Woods
p5654
F4.2
F1.3038404810405297
tp5655
tp5656
Rp5657
ag1
(g4134
(VVoluntaries
p5658
F4.7272727272727275
F0.4670993664969138
tp5659
tp5660
Rp5661
ag1
(g4134
(VSwimming Pools
p5662
F3.4
F1.51657508881031
tp5663
tp5664
Rp5665
ag1
(g4134
(VPhotography
p5666
F3.724340175953079
F1.4585116136370695
tp5667
tp5668
Rp5669
ag1
(g4134
(VPizza Peels
p5670
F4.405038759689923
F1.0224156615107853
tp5671
tp5672
Rp5673
ag1
(g4134
(VSnow Boots
p5674
F4.3374164810690425
F1.0295320484745532
tp5675
tp5676
Rp5677
ag1
(g4134
(VCostumes & Accessories
p5678
F4.197651663405088
F1.1065092617413843
tp5679
tp5680
Rp5681
ag1
(g4134
(VMemphis Blues
p5682
F4.377952755905512
F0.8350376273079689
tp5683
tp5684
Rp5685
ag1
(g4134
(VCalculators
p5686
F4.419682174995214
F1.0372289365402116
tp5687
tp5688
Rp5689
ag1
(g4134
(VFat Burners & Thermogenics
p5690
F3.915742793791574
F1.2117922687436342
tp5691
tp5692
Rp5693
ag1
(g4134
(VMambo
p5694
F4.492537313432836
F0.8233916246392152
tp5695
tp5696
Rp5697
ag1
(g4134
(VCard Shufflers
p5698
F4.333333333333333
F0.9258200997725515
tp5699
tp5700
Rp5701
ag1
(g4134
(VBelt Buckles
p5702
F4.791666666666667
F0.682870453847279
tp5703
tp5704
Rp5705
ag1
(g4134
(VManual Lawn Aerators
p5706
F3.84
F0.9865765724632495
tp5707
tp5708
Rp5709
ag1
(g4134
(VVacuum Pumps
p5710
F5.0
F0.0
tp5711
tp5712
Rp5713
ag1
(g4134
(VBuilding Materials
p5714
F4.343915343915344
F1.0738863453449734
tp5715
tp5716
Rp5717
ag1
(g4134
(VReplacement Parts
p5718
F4.097402597402597
F1.3136936698912627
tp5719
tp5720
Rp5721
ag1
(g4134
(VWrist Watches
p5722
F4.248056537102474
F1.1530453360616224
tp5723
tp5724
Rp5725
ag1
(g4134
(VDocking Stations
p5726
F4.194265463917525
F1.1953635218990335
tp5727
tp5728
Rp5729
ag1
(g4134
(VKitchen Rugs & Mats
p5730
F4.514285714285714
F0.9363560873173651
tp5731
tp5732
Rp5733
ag1
(g4134
(VOffice & School Supplies
p5734
F4.193653376729048
F1.020917426217772
tp5735
tp5736
Rp5737
ag1
(g4134
(VMac
p5738
F4.016949152542373
F1.2159216477626604
tp5739
tp5740
Rp5741
ag1
(g4134
(VOratorios
p5742
F4.5089108910891085
F0.8731100916397728
tp5743
tp5744
Rp5745
ag1
(g4134
(VMeet Equipment
p5746
F4.657894736842105
F0.4807829082199318
tp5747
tp5748
Rp5749
ag1
(g4134
(VEquestrian Sports
p5750
F4.571428571428571
F1.0083683467310327
tp5751
tp5752
Rp5753
ag1
(g4134
(VClassic Country
p5754
F4.630460349462366
F0.76420129483504
tp5755
tp5756
Rp5757
ag1
(g4134
(VAlternative Metal
p5758
F4.111859296482412
F1.2526983882348246
tp5759
tp5760
Rp5761
ag1
(g4134
(VDigital Music
p5762
F4.301318904294893
F1.0606242770573502
tp5763
tp5764
Rp5765
ag1
(g4134
(VOil Sprayers & Dispensers
p5766
F4.036729036729037
F1.315925435226946
tp5767
tp5768
Rp5769
ag1
(g4134
(VSpeedo
p5770
F4.263456090651558
F1.0231671300669534
tp5771
tp5772
Rp5773
ag1
(g4134
(VWraps & Pashminas
p5774
F4.459757442116869
F0.9333655465727191
tp5775
tp5776
Rp5777
ag1
(g4134
(VPen Erasers
p5778
F4.285714285714286
F0.9511897312113418
tp5779
tp5780
Rp5781
ag1
(g4134
(VOutdoor Games & Activities
p5782
F4.5
F0.7540739028638985
tp5783
tp5784
Rp5785
ag1
(g4134
(VSonatas
p5786
F4.415094339622642
F1.081913587196155
tp5787
tp5788
Rp5789
ag1
(g4134
(VGraphics Tablet Styluses
p5790
F4.1
F1.3703203194062976
tp5791
tp5792
Rp5793
ag1
(g4134
(VCopying Equipment
p5794
F3.6
F1.3416407864998738
tp5795
tp5796
Rp5797
ag1
(g4134
(VBike Trainers & Accessories
p5798
F4.386634844868735
F0.9374774703911899
tp5799
tp5800
Rp5801
ag1
(g4134
(VSpades, Shovels & Trowels
p5802
F4.538461538461538
F0.8593378488473195
tp5803
tp5804
Rp5805
ag1
(g4134
(VUrinary Tract Infection Treatments
p5806
F4.7073170731707314
F0.7156780854205468
tp5807
tp5808
Rp5809
ag1
(g4134
(VFitness Circles
p5810
F4.5
F0.5477225575051661
tp5811
tp5812
Rp5813
ag1
(g4134
(VCrushing, Pressing & Stemming
p5814
F3.2
F2.04939015319192
tp5815
tp5816
Rp5817
ag1
(g4134
(VSmall Appliances
p5818
F4.166666666666667
F1.169045194450012
tp5819
tp5820
Rp5821
ag1
(g4134
(VSelf-Esteem & Self-Respect
p5822
F5.0
F0.0
tp5823
tp5824
Rp5825
ag1
(g4134
(VBinoculars & Scopes
p5826
F4.110333566596688
F1.2128581053504832
tp5827
tp5828
Rp5829
ag1
(g4134
(VHubs
p5830
F4.251125040180006
F1.2080203674542578
tp5831
tp5832
Rp5833
ag1
(g4134
(VSega Dreamcast
p5834
F4.178571428571429
F1.0992270374260542
tp5835
tp5836
Rp5837
ag1
(g4134
(VSuits & Blazers
p5838
F3.611464968152866
F1.4484725886640233
tp5839
tp5840
Rp5841
ag1
(g4134
(VFly Tying Tools & Materials
p5842
F4.055555555555555
F1.0675591504373607
tp5843
tp5844
Rp5845
ag1
(g4134
(VBoy Meets Girl
p5846
F4.0
F1.4142135623730951
tp5847
tp5848
Rp5849
ag1
(g4134
(VStudio Recording Equipment
p5850
F4.0
F1.5491933384829666
tp5851
tp5852
Rp5853
ag1
(g4134
(VCricket
p5854
F4.4
F0.9660917830792958
tp5855
tp5856
Rp5857
ag1
(g4134
(VStyluses
p5858
F4.71875
F0.5811209967839966
tp5859
tp5860
Rp5861
ag1
(g4134
(VCD Players
p5862
F4.025165562913907
F1.3521384253688424
tp5863
tp5864
Rp5865
ag1
(g4134
(VCB & Two-Way Radios
p5866
F4.118637274549098
F1.2164607970190324
tp5867
tp5868
Rp5869
ag1
(g4134
(VStorage & Presentation Materials
p5870
F3.847417840375587
F1.351329078184919
tp5871
tp5872
Rp5873
ag1
(g4134
(VMakeup Brushes & Tools
p5874
F4.39866220735786
F1.0439088367370843
tp5875
tp5876
Rp5877
ag1
(g4134
(VShowerheads
p5878
F4.2811387900355875
F1.0887427464269863
tp5879
tp5880
Rp5881
ag1
(g4134
(VMemo & Scratch Pads
p5882
F4.010752688172043
F0.9265952596082954
tp5883
tp5884
Rp5885
ag1
(g4134
(VGrill Covers
p5886
F4.346774193548387
F1.036287580064967
tp5887
tp5888
Rp5889
ag1
(g4134
(VKids
p5890
F4.056918547595682
F1.3028850503990557
tp5891
tp5892
Rp5893
ag1
(g4134
(VAdult Alternative
p5894
F4.201360141927854
F1.1618757547009324
tp5895
tp5896
Rp5897
ag1
(g4134
(VPersonal Size Blenders
p5898
F4.109307359307359
F1.241203046182456
tp5899
tp5900
Rp5901
ag1
(g4134
(VMail Bags & Transit Sacks
p5902
F4.534798534798535
F0.6695021578827134
tp5903
tp5904
Rp5905
ag1
(g4134
(VIn-Visor Video
p5906
F3.888888888888889
F0.7817359599705717
tp5907
tp5908
Rp5909
ag1
(g4134
(VColor Calibration Charts
p5910
F4.041176470588235
F1.2933872887627402
tp5911
tp5912
Rp5913
ag1
(g4134
(VCrossover Parts
p5914
F4.1875
F1.2296734420949118
tp5915
tp5916
Rp5917
ag1
(g4134
(VSlippers
p5918
F4.319727891156463
F1.0202497314337935
tp5919
tp5920
Rp5921
ag1
(g4134
(VG
p5922
F3.736842105263158
F1.2841817655680772
tp5923
tp5924
Rp5925
ag1
(g4134
(VInov-8
p5926
F4.166666666666667
F1.3394467690277296
tp5927
tp5928
Rp5929
ag1
(g4134
(VChemicals & Water Testing Products
p5930
F4.609756097560975
F0.7027819284987273
tp5931
tp5932
Rp5933
ag1
(g4134
(VWii
p5934
F2.8333333333333335
F1.1690451944500122
tp5935
tp5936
Rp5937
ag1
(g4134
(VSpecialty Film Cameras
p5938
F4.333333333333333
F0.816496580927726
tp5939
tp5940
Rp5941
ag1
(g4134
(VCoffee & Espresso Machine Parts & Accessories
p5942
F4.300552486187845
F1.1402641569203935
tp5943
tp5944
Rp5945
ag1
(g4134
(VBike Racks
p5946
F4.308527131782946
F0.9548399439188833
tp5947
tp5948
Rp5949
ag1
(g4134
(VInternal Hard Drives
p5950
F4.393501326259947
F1.139834041145363
tp5951
tp5952
Rp5953
ag1
(g4134
(VAthletic
p5954
F4.25531914893617
F1.1286940869929163
tp5955
tp5956
Rp5957
ag1
(g4134
(VTravel Totes
p5958
F4.478260869565218
F0.9286491230559789
tp5959
tp5960
Rp5961
ag1
(g4134
(VChairs & Sofas
p5962
F4.390243902439025
F0.8451686696534242
tp5963
tp5964
Rp5965
ag1
(g4134
(VWatch Accessories
p5966
F4.330065359477124
F1.058398726646339
tp5967
tp5968
Rp5969
ag1
(g4134
(VRecliners
p5970
F4.636363636363637
F0.7895420339517227
tp5971
tp5972
Rp5973
ag1
(g4134
(VAlpha Lipoic Acid
p5974
F4.345844504021447
F1.0528839796866196
tp5975
tp5976
Rp5977
ag1
(g4134
(VKindle Blogs
p5978
F4.575342465753424
F0.9116195633653892
tp5979
tp5980
Rp5981
ag1
(g4134
(VBabydolls
p5982
F4.103448275862069
F1.0122403577569514
tp5983
tp5984
Rp5985
ag1
(g4134
(VAthletic & Outdoor
p5986
F4.5
F1.2110601416389968
tp5987
tp5988
Rp5989
ag1
(g4134
(VCultivators & Tillers
p5990
F4.4
F0.9684683962230046
tp5991
tp5992
Rp5993
ag1
(g4134
(VBasters
p5994
F4.395424836601308
F1.0644586996732757
tp5995
tp5996
Rp5997
ag1
(g4134
(VCar Electronics
p5998
F4.086509146341464
F1.2565009490947214
tp5999
tp6000
Rp6001
ag1
(g4134
(VCycling Computers
p6002
F4.213248638838476
F1.1199157267961293
tp6003
tp6004
Rp6005
ag1
(g4134
(VInternal Optical Drives
p6006
F4.305467260012715
F1.1563670377327346
tp6007
tp6008
Rp6009
ag1
(g4134
(VWater Bottle Cages
p6010
F4.45821854912764
F0.894400957913121
tp6011
tp6012
Rp6013
ag1
(g4134
(VBlouses & Button-Down Shirts
p6014
F4.013720109760878
F1.2033482367484631
tp6015
tp6016
Rp6017
ag1
(g4134
(VMinerals & Salts
p6018
F4.650574712643678
F0.7723436061124964
tp6019
tp6020
Rp6021
ag1
(g4134
(VWestern Swing
p6022
F4.639344262295082
F0.7543080525868697
tp6023
tp6024
Rp6025
ag1
(g4134
(VRed Wing Shoes
p6026
F4.0625
F1.181453906563152
tp6027
tp6028
Rp6029
ag1
(g4134
(VGrips & Grip Tape
p6030
F4.555555555555555
F0.5773502691896257
tp6031
tp6032
Rp6033
ag1
(g4134
(VSkins & Decals
p6034
F4.234741784037559
F1.145078978580828
tp6035
tp6036
Rp6037
ag1
(g4134
(VUnderwear
p6038
F4.337516226741671
F1.012096784805736
tp6039
tp6040
Rp6041
ag1
(g4134
(VLifestyle
p6042
F3.9634641407307174
F1.421335807811633
tp6043
tp6044
Rp6045
ag1
(g4134
(VOveralls
p6046
F4.545454545454546
F0.8201995322647243
tp6047
tp6048
Rp6049
ag1
(g4134
(VFenders
p6050
F4.239005736137667
F1.0162702100395233
tp6051
tp6052
Rp6053
ag1
(g4134
(VComing of Age
p6054
F4.222222222222222
F0.7688920395955853
tp6055
tp6056
Rp6057
ag1
(g4134
(VAirlocks
p6058
F4.529411764705882
F0.933353341122082
tp6059
tp6060
Rp6061
ag1
(g4134
(VScience Fiction
p6062
F4.428571428571429
F0.810855777078779
tp6063
tp6064
Rp6065
ag1
(g4134
(VHard Rock
p6066
F4.440894568690096
F1.1142482090440848
tp6067
tp6068
Rp6069
ag1
(g4134
(VJump Blues
p6070
F4.631578947368421
F0.5972647203701472
tp6071
tp6072
Rp6073
ag1
(g4134
(VManagerial & Executive Chairs
p6074
F3.9224137931034484
F0.9704401696851438
tp6075
tp6076
Rp6077
ag1
(g4134
(VArm Warmers
p6078
F4.5125
F0.8999824189562704
tp6079
tp6080
Rp6081
ag1
(g4134
(VPromise Rings
p6082
F4.380952380952381
F1.321975433818287
tp6083
tp6084
Rp6085
ag1
(g4134
(VPersonal Care
p6086
F4.333333333333333
F0.8164965809277263
tp6087
tp6088
Rp6089
ag1
(g4134
(VBostonian
p6090
F4.266187050359712
F1.0873151321685381
tp6091
tp6092
Rp6093
ag1
(g4134
(VRugby
p6094
F4.189473684210526
F1.0548241442837483
tp6095
tp6096
Rp6097
ag1
(g4134
(VSexual Wellness
p6098
F4.0398342893562775
F1.2668020676142355
tp6099
tp6100
Rp6101
ag1
(g4134
(VMicrophones
p6102
F4.15461215932914
F1.1548646370187032
tp6103
tp6104
Rp6105
ag1
(g4134
(VSega CD
p6106
F4.190476190476191
F1.030487633067356
tp6107
tp6108
Rp6109
ag1
(g4134
(VChemical Hair Dyes
p6110
F3.950900163666121
F1.3769747658751632
tp6111
tp6112
Rp6113
ag1
(g4134
(VBlocks
p6114
F4.669064748201439
F0.7361128734399078
tp6115
tp6116
Rp6117
ag1
(g4134
(VContemporary R&B
p6118
F4.377245508982036
F1.0121150234948626
tp6119
tp6120
Rp6121
ag1
(g4134
(VBarlow Lenses
p6122
F4.538461538461538
F0.7305161505085608
tp6123
tp6124
Rp6125
ag1
(g4134
(VRink Equipment
p6126
F4.12
F1.1298967504452195
tp6127
tp6128
Rp6129
ag1
(g4134
(VDickies
p6130
F4.281045751633987
F1.0541741363432904
tp6131
tp6132
Rp6133
ag1
(g4134
(VParachutes
p6134
F5.0
F0.0
tp6135
tp6136
Rp6137
ag1
(g4134
(VStudents Scissors
p6138
F4.586206896551724
F0.7731113434850684
tp6139
tp6140
Rp6141
ag1
(g4134
(VSonatinas
p6142
F4.507246376811594
F0.949693811414021
tp6143
tp6144
Rp6145
ag1
(g4134
(VComfort Shoes
p6146
F4.326520520850503
F1.043306465795468
tp6147
tp6148
Rp6149
ag1
(g4134
(VFilters & Accessories
p6150
F4.382159101457347
F1.0401185243426172
tp6151
tp6152
Rp6153
ag1
(g4134
(VCar Stereo Receivers
p6154
F4.1806660772178015
F1.1204377743589087
tp6155
tp6156
Rp6157
ag1
(g4134
(VFunk Rock
p6158
F4.226912928759894
F1.0989238219606563
tp6159
tp6160
Rp6161
ag1
(g4134
(VSuspenders
p6162
F4.304147465437788
F1.1011909951424856
tp6163
tp6164
Rp6165
ag1
(g4134
(VPatio, Lawn & Garden
p6166
F4.31413612565445
F1.0340310299241329
tp6167
tp6168
Rp6169
ag1
(g4134
(VKindle Fire Sleeves
p6170
F4.360655737704918
F0.9666572451020047
tp6171
tp6172
Rp6173
ag1
(g4134
(VMandolins
p6174
F4.666666666666667
F0.5163977794943222
tp6175
tp6176
Rp6177
ag1
(g4134
(VFruit Snacks
p6178
F4.368421052631579
F1.076055173697941
tp6179
tp6180
Rp6181
ag1
(g4134
(VRavenna
p6182
F4.7407407407407405
F0.5557651596209479
tp6183
tp6184
Rp6185
ag1
(g4134
(VSouthern Soul
p6186
F4.566265060240964
F0.8022167669722573
tp6187
tp6188
Rp6189
ag1
(g4134
(VSoccer
p6190
F4.1063829787234045
F1.146526750350464
tp6191
tp6192
Rp6193
ag1
(g4134
(VCycling
p6194
F4.388960205391528
F0.9739100968500836
tp6195
tp6196
Rp6197
ag1
(g4134
(VKicking Cages
p6198
F4.761904761904762
F0.4364357804719849
tp6199
tp6200
Rp6201
ag1
(g4134
(VCable Ties
p6202
F4.565526145900581
F0.874043994611374
tp6203
tp6204
Rp6205
ag1
(g4134
(VLoofahs, Sponges & Poufs
p6206
F4.265168539325843
F1.157340567853295
tp6207
tp6208
Rp6209
ag1
(g4134
(VJamaica
p6210
F4.804347826086956
F0.5787278666364666
tp6211
tp6212
Rp6213
ag1
(g4134
(VAnimals
p6214
F4.6434108527131785
F0.6708023369024578
tp6215
tp6216
Rp6217
ag1
(g4134
(VBrazilian Jazz
p6218
F3.933333333333333
F1.2298957997167563
tp6219
tp6220
Rp6221
ag1
(g4134
(VFolk Rock
p6222
F4.459282724290078
F0.9227465890732335
tp6223
tp6224
Rp6225
ag1
(g4134
(VHeadphone Accessories
p6226
F4.173739346590909
F1.2284542699437144
tp6227
tp6228
Rp6229
ag1
(g4134
(VWomen
p6230
F4.083224967490247
F1.161824177479455
tp6231
tp6232
Rp6233
ag1
(g4134
(VCell Phone Accessories
p6234
F3.9055793991416308
F1.317595404865128
tp6235
tp6236
Rp6237
ag1
(g4134
(VPolitics & Social Sciences
p6238
F4.166666666666667
F0.752772652709081
tp6239
tp6240
Rp6241
ag1
(g4134
(VGolf Balls
p6242
F4.375959079283888
F0.8408390427169153
tp6243
tp6244
Rp6245
ag1
(g4134
(VAir-Powered Staplers
p6246
F4.463768115942029
F0.978890580692478
tp6247
tp6248
Rp6249
ag1
(g4134
(VCaps, Foils & Wraps
p6250
F4.6395348837209305
F0.7501025921624387
tp6251
tp6252
Rp6253
ag1
(g4134
(VSlide, Negative & Print Pages
p6254
F4.75
F0.6079187588743288
tp6255
tp6256
Rp6257
ag1
(g4134
(VBarbecue Tools
p6258
F5.0
F0.0
tp6259
tp6260
Rp6261
ag1
(g4134
(VPleated
p6262
F4.0
F1.4142135623730951
tp6263
tp6264
Rp6265
ag1
(g4134
(VClay Extruders, Mixers & Presses
p6266
F4.9
F0.316227766016838
tp6267
tp6268
Rp6269
ag1
(g4134
(VGranola & Trail Mix Bars
p6270
F4.428571428571429
F1.2071217242444348
tp6271
tp6272
Rp6273
ag1
(g4134
(VHeating & Temperature Control
p6274
F4.666666666666667
F0.816496580927726
tp6275
tp6276
Rp6277
ag1
(g4134
(VIndustrial Electrical
p6278
F4.578947368421052
F0.837707816583391
tp6279
tp6280
Rp6281
ag1
(g4134
(VInternational Rap
p6282
F2.8
F2.04939015319192
tp6283
tp6284
Rp6285
ag1
(g4134
(VUmbrellas
p6286
F4.2984054669703875
F1.1061357350908294
tp6287
tp6288
Rp6289
ag1
(g4134
(VKitchen & Dining
p6290
F4.348
F1.0720443521753242
tp6291
tp6292
Rp6293
ag1
(g4134
(VTumblers
p6294
F4.353396901072705
F1.1053145259562758
tp6295
tp6296
Rp6297
ag1
(g4134
(VFlavored Salt
p6298
F4.8
F0.5606119105813882
tp6299
tp6300
Rp6301
ag1
(g4134
(VPlayer Equipment
p6302
F4.3983739837398375
F0.8966134689075969
tp6303
tp6304
Rp6305
ag1
(g4134
(VVolleyball
p6306
F4.666666666666667
F0.6582805886043833
tp6307
tp6308
Rp6309
ag1
(g4134
(VIce Fishing Accessories
p6310
F4.117647058823529
F1.2187264326529803
tp6311
tp6312
Rp6313
ag1
(g4134
(VCaps & Hats
p6314
F4.5
F0.9058216273156765
tp6315
tp6316
Rp6317
ag1
(g4134
(VCanned & Jarred Food
p6318
F4.372093023255814
F1.1756103949287162
tp6319
tp6320
Rp6321
ag1
(g4134
(VGloves & Protective Gear
p6322
F3.875
F1.1259916264596033
tp6323
tp6324
Rp6325
ag1
(g4134
(VHarnesses
p6326
F4.333333333333333
F1.064581294844754
tp6327
tp6328
Rp6329
ag1
(g4134
(VPop
p6330
F4.288246385920805
F1.0846757015607928
tp6331
tp6332
Rp6333
ag1
(g4134
(VTools & Home Improvement
p6334
F4.364012561745559
F1.0356783937313332
tp6335
tp6336
Rp6337
ag1
(g4134
(VVehicle Electronics Accessories
p6338
F4.138844240336778
F1.2318534789382793
tp6339
tp6340
Rp6341
ag1
(g4134
(VHome Audio
p6342
F4.300889328063241
F1.080592970170505
tp6343
tp6344
Rp6345
ag1
(g4134
(VPolos
p6346
F4.238521836506159
F1.0331906960367445
tp6347
tp6348
Rp6349
ag1
(g4134
(VOils & Serums
p6350
F4.431400688863375
F1.0232166779228278
tp6351
tp6352
Rp6353
ag1
(g4134
(VAudio
p6354
F4.333333333333333
F1.1547005383792515
tp6355
tp6356
Rp6357
ag1
(g4134
(VKids' Protective Gear
p6358
F4.5
F0.674199862463242
tp6359
tp6360
Rp6361
ag1
(g4134
(VKindle DX Adapters
p6362
F4.477064220183486
F1.0766574670679327
tp6363
tp6364
Rp6365
ag1
(g4134
(VLaCrosse
p6366
F3.888888888888889
F1.4529663145135578
tp6367
tp6368
Rp6369
ag1
(g4134
(VMen's
p6370
F4.397642015005359
F1.0530330261262815
tp6371
tp6372
Rp6373
ag1
(g4134
(VNail Polish
p6374
F4.408082649650562
F1.0250526236915358
tp6375
tp6376
Rp6377
ag1
(g4134
(VGlam
p6378
F4.405253283302064
F0.8911272016308224
tp6379
tp6380
Rp6381
ag1
(g4134
(VTeapots
p6382
F4.361005331302361
F1.0501464303248351
tp6383
tp6384
Rp6385
ag1
(g4134
(VSport Watches
p6386
F4.237654320987654
F1.0397072131021616
tp6387
tp6388
Rp6389
ag1
(g4134
(VArchery
p6390
F4.275618374558304
F1.0357129431720387
tp6391
tp6392
Rp6393
ag1
(g4134
(VRocket Dog
p6394
F4.2898550724637685
F1.0160686821875877
tp6395
tp6396
Rp6397
ag1
(g4134
(VShirts
p6398
F4.226865671641791
F0.9860679322094438
tp6399
tp6400
Rp6401
ag1
(g4134
(VSocket Wrenches
p6402
F4.315789473684211
F0.8852263727398502
tp6403
tp6404
Rp6405
ag1
(g4134
(VOld-Time Country
p6406
F4.764705882352941
F0.437237316097603
tp6407
tp6408
Rp6409
ag1
(g4134
(VCall Bells
p6410
F4.9
F0.31622776601683794
tp6411
tp6412
Rp6413
ag1
(g4134
(VSnack Plates
p6414
F4.666666666666667
F0.7071067811865476
tp6415
tp6416
Rp6417
ag1
(g4134
(VSwing Jazz
p6418
F4.581075011229226
F0.8458492174644021
tp6419
tp6420
Rp6421
ag1
(g4134
(VLeveling & Stablilization
p6422
F4.4520547945205475
F0.8666842288350558
tp6423
tp6424
Rp6425
ag1
(g4134
(VMovies & TV
p6426
F4.0654692481144545
F1.2031217460003296
tp6427
tp6428
Rp6429
ag1
(g4134
(VActive Base Layers
p6430
F4.434108527131783
F0.9651109187302239
tp6431
tp6432
Rp6433
ag1
(g4134
(VFood Grinders & Mills
p6434
F4.18546365914787
F1.299667225694859
tp6435
tp6436
Rp6437
ag1
(g4134
(VConnected Devices
p6438
F4.03125
F1.2933280204267796
tp6439
tp6440
Rp6441
ag1
(g4134
(VShampoo & Conditioner Sets
p6442
F4.209322033898305
F1.2270963463721984
tp6443
tp6444
Rp6445
ag1
(g4134
(VCushioning Materials
p6446
F5.0
F0.0
tp6447
tp6448
Rp6449
ag1
(g4134
(VCobraCo
p6450
F3.937062937062937
F0.9873622793376902
tp6451
tp6452
Rp6453
ag1
(g4134
(VTV Turntables
p6454
F4.559322033898305
F0.771724143154033
tp6455
tp6456
Rp6457
ag1
(g4134
(VPatio Furniture Sets
p6458
F4.4
F0.8944271909999159
tp6459
tp6460
Rp6461
ag1
(g4134
(VRoadhouse Country
p6462
F4.75
F0.4629100498862758
tp6463
tp6464
Rp6465
ag1
(g4134
(VGuinea
p6466
F4.8
F0.42163702135578396
tp6467
tp6468
Rp6469
ag1
(g4134
(VRadio Shows
p6470
F4.7272727272727275
F0.46709936649691386
tp6471
tp6472
Rp6473
ag1
(g4134
(VPetite
p6474
F4.101050241271643
F1.1943831301104724
tp6475
tp6476
Rp6477
ag1
(g4134
(VShoes
p6478
F4.241976969649005
F1.0957216296194945
tp6479
tp6480
Rp6481
ag1
(g4134
(VFashion Scarves
p6482
F4.402597402597403
F1.0089465629166716
tp6483
tp6484
Rp6485
ag1
(g4134
(VRV Parts & Accessories
p6486
F4.4692737430167595
F0.9300731737135756
tp6487
tp6488
Rp6489
ag1
(g4134
(VFashion Watches
p6490
F4.219465648854962
F1.2116084866873338
tp6491
tp6492
Rp6493
ag1
(g4134
(VAnthems
p6494
F4.544444444444444
F0.9138277455649367
tp6495
tp6496
Rp6497
ag1
(g4134
(VPepper & Peppercorns
p6498
F4.702702702702703
F0.7017780934828989
tp6499
tp6500
Rp6501
ag1
(g4134
(VFragrance
p6502
F4.581920903954802
F0.9506640827620045
tp6503
tp6504
Rp6505
ag1
(g4134
(VNew Arrivals
p6506
F4.409677419354839
F0.9094211046216677
tp6507
tp6508
Rp6509
ag1
(g4134
(VPlayStation 4
p6510
F4.193985849056604
F1.2664902820610082
tp6511
tp6512
Rp6513
ag1
(g4134
(VLatin Pop
p6514
F4.588235294117647
F0.8207547406056084
tp6515
tp6516
Rp6517
ag1
(g4134
(Vadidas
p6518
F4.5625
F0.8466281824267836
tp6519
tp6520
Rp6521
ag1
(g4134
(VMasses
p6522
F4.745454545454545
F0.5170493857844408
tp6523
tp6524
Rp6525
ag1
(g4134
(VKindle Fire HDX 8.9" Audio
p6526
F4.217131474103586
F0.8905499313822043
tp6527
tp6528
Rp6529
ag1
(g4134
(VOccult
p6530
F4.333333333333333
F0.9020673423841916
tp6531
tp6532
Rp6533
ag1
(g4134
(VOakley
p6534
F4.666666666666667
F0.5163977794943223
tp6535
tp6536
Rp6537
ag1
(g4134
(VKhombu
p6538
F4.571428571428571
F0.5345224838248488
tp6539
tp6540
Rp6541
ag1
(g4134
(VTerrazzo
p6542
F3.8333333333333335
F0.752772652709081
tp6543
tp6544
Rp6545
ag1
(g4134
(VTire & Wheel Assemblies
p6546
F4.6
F0.8944271909999159
tp6547
tp6548
Rp6549
ag1
(g4134
(VAdult Contemporary
p6550
F4.272078758628646
F1.0843735374150436
tp6551
tp6552
Rp6553
ag1
(g4134
(VTelevision Soundtracks
p6554
F4.2301790281329925
F1.0797684195543578
tp6555
tp6556
Rp6557
ag1
(g4134
(VIce Cube Molds & Trays
p6558
F4.3251980982567355
F1.1025920275411922
tp6559
tp6560
Rp6561
ag1
(g4134
(VCreams & Moisturizers
p6562
F4.038107054236087
F1.2267195300531408
tp6563
tp6564
Rp6565
ag1
(g4134
(VSnow Sports
p6566
F4.32425068119891
F1.0221778006359379
tp6567
tp6568
Rp6569
ag1
(g4134
(VKindle Store
p6570
F4.190321708569884
F1.00243261679172
tp6571
tp6572
Rp6573
ag1
(g4134
(VCode Readers & Scan Tools
p6574
F4.416256157635468
F1.0335754905738992
tp6575
tp6576
Rp6577
ag1
(g4134
(VSports Duffels
p6578
F4.51044776119403
F0.8646646797981756
tp6579
tp6580
Rp6581
ag1
(g4134
(VMittens
p6582
F4.456521739130435
F0.9593173901647274
tp6583
tp6584
Rp6585
ag1
(g4134
(VKindle Magazines
p6586
F3.3292402148887184
F1.6154391307349314
tp6587
tp6588
Rp6589
ag1
(g4134
(VCeltic New Age
p6590
F4.486005089058525
F0.969132038546503
tp6591
tp6592
Rp6593
ag1
(g4134
(VNeotraditional
p6594
F4.242424242424242
F1.1734112405264998
tp6595
tp6596
Rp6597
ag1
(g4134
(VBeading & Jewelry-Making
p6598
F4.510204081632653
F0.9109290370268325
tp6599
tp6600
Rp6601
ag1
(g4134
(VGreek & Roman
p6602
F3.823529411764706
F1.4245742398014511
tp6603
tp6604
Rp6605
ag1
(g4134
(VModels & Model Kits
p6606
F4.096774193548387
F1.2207876886032074
tp6607
tp6608
Rp6609
ag1
(g4134
(VPotato Side Dishes
p6610
F4.372093023255814
F1.1343816401133955
tp6611
tp6612
Rp6613
ag1
(g4134
(VGrocery & Gourmet Food
p6614
F4.240544172906553
F1.0900916760860098
tp6615
tp6616
Rp6617
ag1
(g4134
(VScales
p6618
F4.53030303030303
F0.9011878026192635
tp6619
tp6620
Rp6621
ag1
(g4134
(VSalad Tools & Spinners
p6622
F4.374475230898405
F1.0463959945102776
tp6623
tp6624
Rp6625
ag1
(g4134
(VCold Weather Gloves
p6626
F4.201863354037267
F1.0935649809510852
tp6627
tp6628
Rp6629
ag1
(g4134
(VExtended Warranties
p6630
F4.432584269662922
F1.0255634280683454
tp6631
tp6632
Rp6633
ag1
(g4134
(VWest Coast Blues
p6634
F4.568965517241379
F0.7826836545810995
tp6635
tp6636
Rp6637
ag1
(g4134
(VBinding Machine Supplies
p6638
F4.634615384615385
F0.767702100972183
tp6639
tp6640
Rp6641
ag1
(g4134
(VPlate Serving Covers
p6642
F5.0
F0.0
tp6643
tp6644
Rp6645
ag1
(g4134
(VOffice Products
p6646
F4.322703474535936
F1.0020704688774895
tp6647
tp6648
Rp6649
ag1
(g4134
(VRap & Hip-Hop
p6650
F4.251539554713406
F1.0553128180860256
tp6651
tp6652
Rp6653
ag1
(g4134
(VString Trimmers
p6654
F4.209964412811388
F1.0152622807575533
tp6655
tp6656
Rp6657
ag1
(g4134
(VLuggage Sets
p6658
F4.362275449101796
F1.02398366907416
tp6659
tp6660
Rp6661
ag1
(g4134
(VSeychelles
p6662
F4.4
F0.9545214042184235
tp6663
tp6664
Rp6665
ag1
(g4134
(VGloves & Mittens
p6666
F4.375
F0.9801172997452102
tp6667
tp6668
Rp6669
ag1
(g4134
(VCuticle Creams & Oils
p6670
F4.515486725663717
F0.9729052122020064
tp6671
tp6672
Rp6673
ag1
(g4134
(VSt. Louis Blues
p6674
F4.5
F0.7559289460184544
tp6675
tp6676
Rp6677
ag1
(g4134
(VHi-8
p6678
F4.842105263157895
F0.3746343246326776
tp6679
tp6680
Rp6681
ag1
(g4134
(VMats & Flooring
p6682
F4.75
F0.4472135954999579
tp6683
tp6684
Rp6685
ag1
(g4134
(VBreast Petals
p6686
F3.9444444444444446
F1.2113299556429322
tp6687
tp6688
Rp6689
ag1
(g4134
(VTom-Tom Drumheads
p6690
F4.6
F0.5477225575051662
tp6691
tp6692
Rp6693
ag1
(g4134
(VExpanding Files
p6694
F4.8
F0.4472135954999579
tp6695
tp6696
Rp6697
ag1
(g4134
(VCables & Interconnects
p6698
F4.46353270855532
F1.0808536733536744
tp6699
tp6700
Rp6701
ag1
(g4134
(VQuiet Storm
p6702
F4.3534883720930235
F0.9885675554963596
tp6703
tp6704
Rp6705
ag1
(g4134
(VHandkerchiefs
p6706
F4.354330708661418
F0.9043770025711915
tp6707
tp6708
Rp6709
ag1
(g4134
(VNo Show & Liner Socks
p6710
F4.091954022988506
F1.2271700977211544
tp6711
tp6712
Rp6713
ag1
(g4134
(VCallus Shavers
p6714
F4.294820717131474
F1.252834338597544
tp6715
tp6716
Rp6717
ag1
(g4134
(VPutting Mats
p6718
F4.076335877862595
F0.9815084200484244
tp6719
tp6720
Rp6721
ag1
(g4134
(VMaps & Atlases
p6722
F3.7383177570093458
F1.2879830911768162
tp6723
tp6724
Rp6725
ag1
(g4134
(VSport Coats & Blazers
p6726
F3.909090909090909
F1.1916012000302032
tp6727
tp6728
Rp6729
ag1
(g4134
(VAnt
p6730
F4.204081632653061
F1.0741497109410927
tp6731
tp6732
Rp6733
ag1
(g4134
(VDrumsticks
p6734
F4.625
F0.5175491695067657
tp6735
tp6736
Rp6737
ag1
(g4134
(VPower Window Regulators
p6738
F4.714285714285714
F0.4879500364742666
tp6739
tp6740
Rp6741
ag1
(g4134
(VCraps Equipment
p6742
F4.5
F0.6882472016116853
tp6743
tp6744
Rp6745
ag1
(g4134
(VSystems & Accessories
p6746
F4.666666666666667
F0.6513389472789297
tp6747
tp6748
Rp6749
ag1
(g4134
(VSuites
p6750
F4.5639894086496025
F0.8399324639858466
tp6751
tp6752
Rp6753
ag1
(g4134
(VCamera & Photo
p6754
F4.278782388370266
F1.105562529124544
tp6755
tp6756
Rp6757
ag1
(g4134
(VRouters
p6758
F3.870084661996648
F1.4472898257295599
tp6759
tp6760
Rp6761
ag1
(g4134
(VTelevisions
p6762
F4.292508917954816
F1.1198235059640558
tp6763
tp6764
Rp6765
ag1
(g4134
(VEasy Listening
p6766
F4.718403547671841
F0.6552984910275177
tp6767
tp6768
Rp6769
ag1
(g4134
(VNintendo 3DS
p6770
F4.547540983606558
F0.7979427820011367
tp6771
tp6772
Rp6773
ag1
(g4134
(VCamp Kitchen
p6774
F4.383035122597747
F0.9602876237792625
tp6775
tp6776
Rp6777
ag1
(g4134
(VTreatment Tools
p6778
F4.161375661375661
F1.2437174581867994
tp6779
tp6780
Rp6781
ag1
(g4134
(VTool Kits
p6782
F4.503496503496503
F0.8125262801741269
tp6783
tp6784
Rp6785
ag1
(g4134
(VFleece
p6786
F4.480225988700565
F0.8600369672302279
tp6787
tp6788
Rp6789
ag1
(g4134
(VEtudes
p6790
F4.555555555555555
F0.8432740427115677
tp6791
tp6792
Rp6793
ag1
(g4134
(VChemicals
p6794
F4.5
F0.908513525158996
tp6795
tp6796
Rp6797
ag1
(g4134
(VHammocks, Stands & Accessories
p6798
F4.4
F1.0555973258234954
tp6799
tp6800
Rp6801
ag1
(g4134
(VToners & Astringents
p6802
F4.296610169491525
F1.0944328396977872
tp6803
tp6804
Rp6805
ag1
(g4134
(VSongs & Lieder
p6806
F4.457983193277311
F0.9927735352780707
tp6807
tp6808
Rp6809
ag1
(g4134
(VElectronics Warranties
p6810
F4.31243747915972
F1.1574289561501407
tp6811
tp6812
Rp6813
ag1
(g4134
(VLeg Avenue
p6814
F4.2319018404907975
F1.140698174148275
tp6815
tp6816
Rp6817
ag1
(g4134
(VAir Filters
p6818
F4.663461538461538
F0.584767432371758
tp6819
tp6820
Rp6821
ag1
(g4134
(VCell Phone Docks
p6822
F4.076023391812866
F1.051642121822239
tp6823
tp6824
Rp6825
ag1
(g4134
(VWristbands
p6826
F4.159722222222222
F1.2271018471500006
tp6827
tp6828
Rp6829
ag1
(g4134
(VTraining Cones
p6830
F4.72093023255814
F0.5906244232186183
tp6831
tp6832
Rp6833
ag1
(g4134
(VLive Sound & Stage
p6834
F4.426113360323886
F0.9952298972766425
tp6835
tp6836
Rp6837
ag1
(g4134
(VBinder Accessories
p6838
F4.415983606557377
F0.8138373724059024
tp6839
tp6840
Rp6841
ag1
(g4134
(VSnatch Blocks
p6842
F4.586206896551724
F0.7799835794659097
tp6843
tp6844
Rp6845
ag1
(g4134
(VHeating, Cooling & Air Quality
p6846
F3.6363636363636362
F1.3618169680781096
tp6847
tp6848
Rp6849
ag1
(g4134
(VCardigans
p6850
F4.055555555555555
F1.122945363456378
tp6851
tp6852
Rp6853
ag1
(g4134
(VBears
p6854
F4.625
F0.5175491695067657
tp6855
tp6856
Rp6857
ag1
(g4134
(VCases
p6858
F4.109935915940188
F1.2042481545204262
tp6859
tp6860
Rp6861
ag1
(g4134
(VBrazil
p6862
F4.45
F0.9263737023687598
tp6863
tp6864
Rp6865
ag1
(g4134
(VFlatware
p6866
F4.425531914893617
F1.0372346355462145
tp6867
tp6868
Rp6869
ag1
(g4134
(VRoofing Nailers
p6870
F4.636363636363637
F0.7784989441615229
tp6871
tp6872
Rp6873
ag1
(g4134
(VSnare Drumheads
p6874
F4.545454545454546
F1.2135597524338357
tp6875
tp6876
Rp6877
ag1
(g4134
(VServing Spoons
p6878
F4.733333333333333
F0.6324555320336759
tp6879
tp6880
Rp6881
ag1
(g4134
(VTool Sets
p6882
F4.604651162790698
F0.7283227595523495
tp6883
tp6884
Rp6885
ag1
(g4134
(VBelly Bands
p6886
F3.8548387096774195
F1.3531599228611717
tp6887
tp6888
Rp6889
ag1
(g4134
(VOldies
p6890
F4.519678414508741
F0.8673054447630206
tp6891
tp6892
Rp6893
ag1
(g4134
(VJewelry Boxes
p6894
F4.441821247892074
F0.9605766436177703
tp6895
tp6896
Rp6897
ag1
(g4134
(VLucky Brand
p6898
F4.2
F1.3984117975602022
tp6899
tp6900
Rp6901
ag1
(g4134
(VHandbags & Wallets
p6902
F4.21309963099631
F1.1538101741804578
tp6903
tp6904
Rp6905
ag1
(g4134
(VCooking
p6906
F3.8138111888111887
F1.4022100686805223
tp6907
tp6908
Rp6909
ag1
(g4134
(VStraight, Spiral & Trim Bits
p6910
F4.486187845303867
F0.9345690320298551
tp6911
tp6912
Rp6913
ag1
(g4134
(VTools & Accessories
p6914
F4.205607476635514
F1.19541827965771
tp6915
tp6916
Rp6917
ag1
(g4134
(VShipping Labels
p6918
F4.577006507592191
F0.7241997627551002
tp6919
tp6920
Rp6921
ag1
(g4134
(VSteve Madden
p6922
F3.7777777777777777
F1.3545924239123128
tp6923
tp6924
Rp6925
ag1
(g4134
(VSaddle Accessories
p6926
F4.48
F0.8717797887081348
tp6927
tp6928
Rp6929
ag1
(g4134
(VComplexes
p6930
F4.493670886075949
F0.8897337216401116
tp6931
tp6932
Rp6933
ag1
(g4134
(VStorage Cabinets
p6934
F4.076923076923077
F1.0553891006856921
tp6935
tp6936
Rp6937
ag1
(g4134
(VAccounting & Finance
p6938
F3.2857142857142856
F1.7288756430151326
tp6939
tp6940
Rp6941
ag1
(g4134
(VJewelry
p6942
F4.271664374140302
F1.1413975618516152
tp6943
tp6944
Rp6945
ag1
(g4134
(VSalomon
p6946
F4.5353535353535355
F0.9261201907412492
tp6947
tp6948
Rp6949
ag1
(g4134
(VCO2 Pumps
p6950
F4.511749347258486
F0.9233689850533606
tp6951
tp6952
Rp6953
ag1
(g4134
(VTable Fans
p6954
F4.1875
F1.1823510865290254
tp6955
tp6956
Rp6957
ag1
(g4134
(VSpoken Word
p6958
F4.389175257731959
F0.9938239983759678
tp6959
tp6960
Rp6961
ag1
(g4134
(VFlowers
p6962
F4.5
F1.224744871391589
tp6963
tp6964
Rp6965
ag1
(g4134
(VData Cartridges
p6966
F4.4222222222222225
F1.1747763627548702
tp6967
tp6968
Rp6969
ag1
(g4134
(VLap Desks
p6970
F4.1875
F1.0215922834726159
tp6971
tp6972
Rp6973
ag1
(g4134
(VWest Coast
p6974
F3.6
F0.9947229183096801
tp6975
tp6976
Rp6977
ag1
(g4134
(VJazz Fusion
p6978
F4.428624055995579
F0.948721342270592
tp6979
tp6980
Rp6981
ag1
(g4134
(VShaving & Hair Removal
p6982
F4.220678885509986
F1.0926332598231212
tp6983
tp6984
Rp6985
ag1
(g4134
(VAmplifiers & Effects
p6986
F4.428667113194909
F0.9546180431361038
tp6987
tp6988
Rp6989
ag1
(g4134
(VHandheld Digital Photo Viewers
p6990
F3.9523809523809526
F1.2238038456119356
tp6991
tp6992
Rp6993
ag1
(g4134
(VFlats
p6994
F3.911179173047473
F1.2046197104479166
tp6995
tp6996
Rp6997
ag1
(g4134
(VSleep & Lounge
p6998
F4.357670221493027
F0.9967352821718694
tp6999
tp7000
Rp7001
ag1
(g4134
(VWeather
p7002
F3.9068736141906872
F1.3939073871455048
tp7003
tp7004
Rp7005
ag1
(g4134
(VParallel Adapters
p7006
F4.47926267281106
F1.0129796945445566
tp7007
tp7008
Rp7009
ag1
(g4134
(VScrapbooking
p7010
F4.423076923076923
F0.9021342216356465
tp7011
tp7012
Rp7013
ag1
(g4134
(VCleaning Tools & Chemicals
p7014
F4.319148936170213
F0.980381092244976
tp7015
tp7016
Rp7017
ag1
(g4134
(VHolsters & Clips
p7018
F4.411255411255412
F0.9644343598614998
tp7019
tp7020
Rp7021
ag1
(g4134
(VHorror
p7022
F4.428571428571429
F0.7867957924694432
tp7023
tp7024
Rp7025
ag1
(g4134
(VBike Bells
p7026
F4.205882352941177
F1.1305347017403604
tp7027
tp7028
Rp7029
ag1
(g4134
(VTommy Bahama
p7030
F4.4375
F0.963932916061417
tp7031
tp7032
Rp7033
ag1
(g4134
(VVera Bradley
p7034
F5.0
F0.0
tp7035
tp7036
Rp7037
ag1
(g4134
(VShoes & Accessories: International Shipping Available
p7038
F4.488888888888889
F0.9131433873007813
tp7039
tp7040
Rp7041
ag1
(g4134
(VModern Blues
p7042
F4.333333333333333
F1.0327955589886444
tp7043
tp7044
Rp7045
ag1
(g4134
(VBridges & Bridge Heads
p7046
F4.875
F0.3535533905932738
tp7047
tp7048
Rp7049
ag1
(g4134
(VPort Tubes
p7050
F4.882352941176471
F0.33210558207753577
tp7051
tp7052
Rp7053
ag1
(g4134
(VShorts
p7054
F4.305245535714286
F0.9946901719766053
tp7055
tp7056
Rp7057
ag1
(g4134
(VSaucepans
p7058
F4.565059616381545
F0.8850079758367526
tp7059
tp7060
Rp7061
ag1
(g4134
(VCoral Calcium
p7062
F4.448529411764706
F0.9874760414622088
tp7063
tp7064
Rp7065
ag1
(g4134
(VDocument Management
p7066
F3.6793893129770994
F1.3258795372391579
tp7067
tp7068
Rp7069
ag1
(g4134
(VMultimedia Cards
p7070
F4.3125
F1.3060035073805591
tp7071
tp7072
Rp7073
ag1
(g4134
(VCarb Blockers
p7074
F3.748447204968944
F1.3449156867138958
tp7075
tp7076
Rp7077
ag1
(g4134
(VCargo Shorts
p7078
F4.0
F1.224744871391589
tp7079
tp7080
Rp7081
ag1
(g4134
(VTrailer Accessories
p7082
F4.6625
F0.7453441987991483
tp7083
tp7084
Rp7085
ag1
(g4134
(VOil Pressure Gauges
p7086
F4.551724137931035
F0.9481638984506442
tp7087
tp7088
Rp7089
ag1
(g4134
(VBiographies & Memoirs
p7090
F4.875
F0.3535533905932738
tp7091
tp7092
Rp7093
ag1
(g4134
(VFlorsheim
p7094
F4.216216216216216
F1.0576476817062561
tp7095
tp7096
Rp7097
ag1
(g4134
(VGrills & Outdoor Cooking
p7098
F4.560761346998536
F0.8214753233608734
tp7099
tp7100
Rp7101
ag1
(g4134
(VStrobe Lighting
p7102
F4.121951219512195
F1.1635003431594313
tp7103
tp7104
Rp7105
ag1
(g4134
(VInfants & Toddlers
p7106
F4.12280701754386
F1.087699353359445
tp7107
tp7108
Rp7109
ag1
(g4134
(VCollections
p7110
F4.454545454545454
F0.8748300952529319
tp7111
tp7112
Rp7113
ag1
(g4134
(VPopcorn
p7114
F4.220779220779221
F1.0465906632512292
tp7115
tp7116
Rp7117
ag1
(g4134
(VBedding & Furniture Protection
p7118
F4.577981651376147
F0.8581571056941489
tp7119
tp7120
Rp7121
ag1
(g4134
(VSoul
p7122
F4.348786769689576
F0.9905718539456252
tp7123
tp7124
Rp7125
ag1
(g4134
(VOffice Storage Supplies
p7126
F4.330097087378641
F0.8973409651165632
tp7127
tp7128
Rp7129
ag1
(g4134
(VDrum & Percussion Accessories
p7130
F4.586206896551724
F0.9070061182385527
tp7131
tp7132
Rp7133
ag1
(g4134
(VHand Soaps
p7134
F4.359882005899705
F1.0554695347519378
tp7135
tp7136
Rp7137
ag1
(g4134
(VStamps
p7138
F4.9
F0.31622776601683794
tp7139
tp7140
Rp7141
ag1
(g4134
(VGoalkeeper Gloves
p7142
F4.4
F0.8944271909999159
tp7143
tp7144
Rp7145
ag1
(g4134
(VWatches
p7146
F4.6
F0.894427190999916
tp7147
tp7148
Rp7149
ag1
(g4134
(VTables
p7150
F4.229813664596273
F1.1045329912289177
tp7151
tp7152
Rp7153
ag1
(g4134
(VCountry Rock
p7154
F4.397681647454993
F0.9868258890704114
tp7155
tp7156
Rp7157
ag1
(g4134
(VBike Mirrors
p7158
F3.945906432748538
F1.2719513478704605
tp7159
tp7160
Rp7161
ag1
(g4134
(VShifters
p7162
F4.64
F0.7168162270454714
tp7163
tp7164
Rp7165
ag1
(g4134
(VClaws
p7166
F4.086206896551724
F1.2180583162172445
tp7167
tp7168
Rp7169
ag1
(g4134
(VThinking & Problem Solving
p7170
F4.293478260869565
F0.9782024721116247
tp7171
tp7172
Rp7173
ag1
(g4134
(VFace Masks
p7174
F4.241379310344827
F1.1229798501497543
tp7175
tp7176
Rp7177
ag1
(g4134
(VGrills
p7178
F4.582802547770701
F0.8158711875987972
tp7179
tp7180
Rp7181
ag1
(g4134
(VCoffee Urns
p7182
F4.304347826086956
F1.2637985206381843
tp7183
tp7184
Rp7185
ag1
(g4134
(VPotholders & Oven Mitts
p7186
F4.326548289302728
F1.0735077082948772
tp7187
tp7188
Rp7189
ag1
(g4134
(VCasual
p7190
F4.024745912505524
F1.229942141009856
tp7191
tp7192
Rp7193
ag1
(g4134
(VEasy Street
p7194
F4.011111111111111
F1.1607389978088947
tp7195
tp7196
Rp7197
ag1
(g4134
(VMovie Scores
p7198
F4.22972972972973
F1.1231404058266572
tp7199
tp7200
Rp7201
ag1
(g4134
(VDisc Jewel Cases
p7202
F4.423728813559322
F0.9762670909375443
tp7203
tp7204
Rp7205
ag1
(g4134
(VRacquet Sports
p7206
F4.525
F0.8524351987248523
tp7207
tp7208
Rp7209
ag1
(g4134
(VThigh Slimmers
p7210
F4.051204819277109
F1.2043846356839532
tp7211
tp7212
Rp7213
ag1
(g4134
(VSingle-Serve Cups
p7214
F4.55614973262032
F0.8925029074603605
tp7215
tp7216
Rp7217
ag1
(g4134
(VScissors
p7218
F4.342391304347826
F1.1049549302830226
tp7219
tp7220
Rp7221
ag1
(g4134
(VMetronomes
p7222
F4.75
F0.4522670168666454
tp7223
tp7224
Rp7225
ag1
(g4134
(VIndoor Gardening & Hydroponics
p7226
F4.389162561576355
F0.8567037845329096
tp7227
tp7228
Rp7229
ag1
(g4134
(VChoppers & Mincers
p7230
F3.909090909090909
F1.5782614139961386
tp7231
tp7232
Rp7233
ag1
(g4134
(VFishing Wear & Apparel
p7234
F4.490909090909091
F0.9403058460815206
tp7235
tp7236
Rp7237
ag1
(g4134
(VWord Processing
p7238
F3.7222222222222223
F1.6379885640466822
tp7239
tp7240
Rp7241
ag1
(g4134
(VIrons
p7242
F4.148037606327414
F1.162418136711443
tp7243
tp7244
Rp7245
ag1
(g4134
(VStyling Tools
p7246
F4.125850832729906
F1.2057723532643045
tp7247
tp7248
Rp7249
ag1
(g4134
(VLights & Lighting Accessories
p7250
F4.316433566433567
F1.045530021665515
tp7251
tp7252
Rp7253
ag1
(g4134
(VKindle Fire HD 7" (Previous Generation) Covers
p7254
F4.338420107719928
F0.9893483109168857
tp7255
tp7256
Rp7257
ag1
(g4134
(VFlax Seed
p7258
F4.7592592592592595
F0.6711068071557325
tp7259
tp7260
Rp7261
ag1
(g4134
(VChain Guards
p7262
F4.43859649122807
F0.8455248551649763
tp7263
tp7264
Rp7265
ag1
(g4134
(VTangos
p7266
F4.6
F0.5477225575051661
tp7267
tp7268
Rp7269
ag1
(g4134
(VRacks
p7270
F4.245901639344262
F0.8690174088190644
tp7271
tp7272
Rp7273
ag1
(g4134
(VReggae
p7274
F4.301453352086264
F1.0870130284063764
tp7275
tp7276
Rp7277
ag1
(g4134
(VLaptops
p7278
F4.113464550841109
F1.2438369538172713
tp7279
tp7280
Rp7281
ag1
(g4134
(VInkjet Printer Ink
p7282
F4.384102808186578
F1.0737182910210028
tp7283
tp7284
Rp7285
ag1
(g4134
(VEyebrow Color
p7286
F4.1209992193598755
F1.1996891267243526
tp7287
tp7288
Rp7289
ag1
(g4134
(VFencing
p7290
F4.064516129032258
F1.2092830898502838
tp7291
tp7292
Rp7293
ag1
(g4134
(VSuitcases
p7294
F4.456310679611651
F1.0243541596883157
tp7295
tp7296
Rp7297
ag1
(g4134
(VSuperhero
p7298
F4.909090909090909
F0.29080336345115265
tp7299
tp7300
Rp7301
ag1
(g4134
(VIndex Tabs
p7302
F4.695945945945946
F0.555232178974244
tp7303
tp7304
Rp7305
ag1
(g4134
(VGarter Belts
p7306
F3.8095238095238093
F1.2497618820818477
tp7307
tp7308
Rp7309
ag1
(g4134
(VApps for Android
p7310
F3.7664655341047593
F1.5024034008323797
tp7311
tp7312
Rp7313
ag1
(g4134
(VPest Control
p7314
F3.7644584647739223
F1.25087605118705
tp7315
tp7316
Rp7317
ag1
(g4134
(VShoe Horns & Boot Jacks
p7318
F4.422907488986784
F1.071350320438165
tp7319
tp7320
Rp7321
ag1
(g4134
(VSing-A-Longs
p7322
F4.5177304964539005
F0.8992285334777061
tp7323
tp7324
Rp7325
ag1
(g4134
(VBodystockings
p7326
F4.334415584415584
F1.0807091332249457
tp7327
tp7328
Rp7329
ag1
(g4134
(VLip Stains
p7330
F3.7360703812316713
F1.3286949969921287
tp7331
tp7332
Rp7333
ag1
(g4134
(VWear to Work
p7334
F3.8702928870292888
F1.2655391862194771
tp7335
tp7336
Rp7337
ag1
(g4134
(VNaughty Monkey
p7338
F4.121739130434783
F1.1857918080556422
tp7339
tp7340
Rp7341
ag1
(g4134
(VClips & Mounts
p7342
F4.379310344827586
F1.1334386793185862
tp7343
tp7344
Rp7345
ag1
(g4134
(VCarpet Cleaners, Sweepers & Accessories
p7346
F3.373134328358209
F1.6221555141186454
tp7347
tp7348
Rp7349
ag1
(g4134
(VCorers
p7350
F4.353988603988604
F1.078880277965181
tp7351
tp7352
Rp7353
ag1
(g4134
(VTrivets
p7354
F4.577065351418002
F0.8299437847513388
tp7355
tp7356
Rp7357
ag1
(g4134
(VHair, Skin & Nails Complex
p7358
F4.074712643678161
F1.1899549248030068
tp7359
tp7360
Rp7361
ag1
(g4134
(VHydration Packs & Bladders
p7362
F4.447761194029851
F1.030126382341291
tp7363
tp7364
Rp7365
ag1
(g4134
(VWing Corkscrews
p7366
F4.666666666666667
F0.8876253645985945
tp7367
tp7368
Rp7369
ag1
(g4134
(VTreadmills
p7370
F4.216931216931217
F1.0419545363795972
tp7371
tp7372
Rp7373
ag1
(g4134
(VWaterproof Cases
p7374
F3.812807881773399
F1.4807121304976592
tp7375
tp7376
Rp7377
ag1
(g4134
(VDesktops
p7378
F3.8181818181818183
F1.680032982566361
tp7379
tp7380
Rp7381
ag1
(g4134
(VMounting Accessories
p7382
F4.166666666666667
F0.834847109936722
tp7383
tp7384
Rp7385
ag1
(g4134
(VNoir
p7386
F4.333333333333333
F0.8164965809277259
tp7387
tp7388
Rp7389
ag1
(g4134
(VCameras
p7390
F4.0
F1.2649110640673518
tp7391
tp7392
Rp7393
ag1
(g4134
(VCold Weather Scarves
p7394
F4.666666666666667
F0.8164965809277261
tp7395
tp7396
Rp7397
ag1
(g4134
(VBlowfish
p7398
F4.4
F0.8944271909999159
tp7399
tp7400
Rp7401
ag1
(g4134
(VPower Toothbrushes
p7402
F4.4264659767952335
F0.9860253388287978
tp7403
tp7404
Rp7405
ag1
(g4134
(VNovelty, Costumes & More
p7406
F4.303463118763451
F1.0793276703382728
tp7407
tp7408
Rp7409
ag1
(g4134
(VTravel Accessories
p7410
F4.471106758080313
F0.9256525165761564
tp7411
tp7412
Rp7413
ag1
(g4134
(VSweaters
p7414
F4.050104384133611
F1.1902980251080268
tp7415
tp7416
Rp7417
ag1
(g4134
(VMagazines
p7418
F3.1167268351383877
F1.6601921419470167
tp7419
tp7420
Rp7421
ag1
(g4134
(VGUESS? Watches
p7422
F4.631578947368421
F0.6839855680567692
tp7423
tp7424
Rp7425
ag1
(g4134
(VSurf Rock
p7426
F4.192982456140351
F0.953163838622797
tp7427
tp7428
Rp7429
ag1
(g4134
(VHot-Air Brushes
p7430
F3.766260162601626
F1.3719030434731196
tp7431
tp7432
Rp7433
ag1
(g4134
(VHandlebars
p7434
F4.454545454545454
F1.2135597524338357
tp7435
tp7436
Rp7437
ag1
(g4134
(VInterior Accessories
p7438
F4.6380952380952385
F0.5738501801899424
tp7439
tp7440
Rp7441
ag1
(g4134
(VLine Conditioners
p7442
F3.5454545454545454
F1.5954480704349314
tp7443
tp7444
Rp7445
ag1
(g4134
(VAntivirus
p7446
F3.5609756097560976
F1.5648865752146668
tp7447
tp7448
Rp7449
ag1
(g4134
(VCorded Electric
p7450
F3.8
F1.1352924243950935
tp7451
tp7452
Rp7453
ag1
(g4134
(VHelmet Communication
p7454
F4.6
F0.8432740427115678
tp7455
tp7456
Rp7457
ag1
(g4134
(VMovie Soundtracks
p7458
F4.3963952393184345
F0.9652695812685905
tp7459
tp7460
Rp7461
ag1
(g4134
(VNoodles
p7462
F4.444444444444445
F1.3333333333333335
tp7463
tp7464
Rp7465
ag1
(g4134
(VTrash Bags
p7466
F4.352331606217617
F1.0746745621698441
tp7467
tp7468
Rp7469
ag1
(g4134
(VMusical Instruments
p7470
F4.47985347985348
F0.8802401551770028
tp7471
tp7472
Rp7473
ag1
(g4134
(VManual Staplers
p7474
F4.342692584593233
F0.9247159894753467
tp7475
tp7476
Rp7477
ag1
(g4134
(VSunglasses & Eyewear
p7478
F4.07977207977208
F1.2398131350690793
tp7479
tp7480
Rp7481
ag1
(g4134
(VFruit Leather
p7482
F4.447058823529412
F0.8797440422258812
tp7483
tp7484
Rp7485
ag1
(g4134
(VSlide Projectors
p7486
F3.2857142857142856
F1.4960264830861913
tp7487
tp7488
Rp7489
ag1
(g4134
(VAmmeters
p7490
F4.2727272727272725
F1.1908743922772955
tp7491
tp7492
Rp7493
ag1
(g4134
(VViolins
p7494
F4.285714285714286
F0.48795003647426677
tp7495
tp7496
Rp7497
ag1
(g4134
(VHoses & Accessories
p7498
F4.231746031746032
F1.1335083341840382
tp7499
tp7500
Rp7501
ag1
(g4134
(VDecorative Pillows, Inserts & Covers
p7502
F4.399368587213891
F1.0538125677829033
tp7503
tp7504
Rp7505
ag1
(g4134
(VDress & Trouser Socks
p7506
F4.330453563714903
F1.0490570954460345
tp7507
tp7508
Rp7509
ag1
(g4134
(VChildren's Music
p7510
F4.46360153256705
F0.9735547673679306
tp7511
tp7512
Rp7513
ag1
(g4134
(VSignal Boosters
p7514
F3.756294964028777
F1.4347355813338751
tp7515
tp7516
Rp7517
ag1
(g4134
(VSprinklers
p7518
F4.171428571428572
F1.1133554866081359
tp7519
tp7520
Rp7521
ag1
(g4134
(VKindle Short Reads
p7522
F3.8846153846153846
F1.1773503497913638
tp7523
tp7524
Rp7525
ag1
(g4134
(VCountry
p7526
F4.394322653175942
F1.0457304815179989
tp7527
tp7528
Rp7529
ag1
(g4134
(VKeyboard & Mouse Combos
p7530
F4.073573923166473
F1.2114591070567127
tp7531
tp7532
Rp7533
ag1
(g4134
(VVHS-C
p7534
F4.023255813953488
F1.3717892496859843
tp7535
tp7536
Rp7537
ag1
(g4134
(VFleece Vests
p7538
F4.297101449275362
F0.9234133781818324
tp7539
tp7540
Rp7541
ag1
(g4134
(VGrill Connectors & Hoses
p7542
F4.217391304347826
F1.3127528930087211
tp7543
tp7544
Rp7545
ag1
(g4134
(VToaster Oven Cookware
p7546
F4.153846153846154
F0.8987170342729172
tp7547
tp7548
Rp7549
ag1
(g4134
(VPunk Revival
p7550
F4.0
F1.699673171197595
tp7551
tp7552
Rp7553
ag1
(g4134
(VCones
p7554
F5.0
F0.0
tp7555
tp7556
Rp7557
ag1
(g4134
(VClippers & Trimmers
p7558
F4.325337331334333
F1.0935257185580147
tp7559
tp7560
Rp7561
ag1
(g4134
(VPlayStation Vita
p7562
F4.2866027468256025
F1.072902170468143
tp7563
tp7564
Rp7565
ag1
(g4134
(VClips
p7566
F4.274916943521594
F1.1284879399011627
tp7567
tp7568
Rp7569
ag1
(g4134
(VSandals
p7570
F4.357512953367876
F1.0809226532844152
tp7571
tp7572
Rp7573
ag1
(g4134
(VElectric Coffee Percolators
p7574
F4.121376811594203
F1.2941777716292646
tp7575
tp7576
Rp7577
ag1
(g4134
(VSkins
p7578
F4.117647058823529
F1.1486199245583533
tp7579
tp7580
Rp7581
ag1
(g4134
(VDogs
p7582
F4.625
F0.5175491695067657
tp7583
tp7584
Rp7585
ag1
(g4134
(VExercise & Fitness
p7586
F4.300948817319257
F1.03495853497882
tp7587
tp7588
Rp7589
ag1
(g4134
(VGuns & Rifles
p7590
F4.0564479118861865
F1.2305524651678859
tp7591
tp7592
Rp7593
ag1
(g4134
(VControllers
p7594
F4.196268946754761
F1.1738790003402328
tp7595
tp7596
Rp7597
ag1
(g4134
(VHats & Caps
p7598
F4.3076923076923075
F1.0627479224512864
tp7599
tp7600
Rp7601
ag1
(g4134
(VWindow Boxes
p7602
F4.6
F0.5477225575051662
tp7603
tp7604
Rp7605
ag1
(g4134
(VRotisseries & Roasters
p7606
F4.400756143667297
F1.0544276214999635
tp7607
tp7608
Rp7609
ag1
(g4134
(VTuxedo Shirts
p7610
F3.9130434782608696
F1.3112465782349276
tp7611
tp7612
Rp7613
ag1
(g4134
(VTablets
p7614
F4.513513513513513
F0.9012837024557318
tp7615
tp7616
Rp7617
ag1
(g4134
(VCard Sleeves
p7618
F4.8
F0.4216370213557839
tp7619
tp7620
Rp7621
ag1
(g4134
(VNintendo 64
p7622
F4.3076923076923075
F0.9473309334313419
tp7623
tp7624
Rp7625
ag1
(g4134
(VDecanters
p7626
F4.4961832061068705
F0.8873227699702567
tp7627
tp7628
Rp7629
ag1
(g4134
(VDVD-RAM Discs
p7630
F4.543887147335423
F1.086719574984281
tp7631
tp7632
Rp7633
ag1
(g4134
(VCar Care
p7634
F4.6826923076923075
F0.6917655501437342
tp7635
tp7636
Rp7637
ag1
(g4134
(VScary Stories
p7638
F4.8
F0.42163702135578407
tp7639
tp7640
Rp7641
ag1
(g4134
(VKindle Sleeves
p7642
F4.53932584269663
F0.9177068725816849
tp7643
tp7644
Rp7645
ag1
(g4134
(VHardware
p7646
F4.305158483530143
F1.1583586528803933
tp7647
tp7648
Rp7649
ag1
(g4134
(VStep-Up Rings
p7650
F4.776859504132231
F0.679058537079808
tp7651
tp7652
Rp7653
ag1
(g4134
(VSouthern Rock
p7654
F4.275346260387812
F1.0386523623501533
tp7655
tp7656
Rp7657
ag1
(g4134
(VPower & Hand Tools
p7658
F4.3125
F0.9488234595786557
tp7659
tp7660
Rp7661
ag1
(g4134
(VParallel Port Cards
p7662
F4.151515151515151
F1.3278280979795336
tp7663
tp7664
Rp7665
ag1
(g4134
(VCovers
p7666
F4.45823927765237
F0.9542973593310129
tp7667
tp7668
Rp7669
ag1
(g4134
(VBike Brakes & Parts
p7670
F4.553571428571429
F0.6005949431307973
tp7671
tp7672
Rp7673
ag1
(g4134
(VCornhole
p7674
F4.531645569620253
F0.7980013983339508
tp7675
tp7676
Rp7677
ag1
(g4134
(VLife Jackets & Vests
p7678
F4.142857142857143
F1.2314558524297639
tp7679
tp7680
Rp7681
ag1
(g4134
(VROGUE
p7682
F4.6
F0.6992058987801011
tp7683
tp7684
Rp7685
ag1
(g4134
(VRain Hats
p7686
F5.0
F0.0
tp7687
tp7688
Rp7689
ag1
(g4134
(VMedical Supplies & Equipment
p7690
F4.2267277268942545
F1.1689410559992282
tp7691
tp7692
Rp7693
ag1
(g4134
(VCPU Cooling Fans
p7694
F4.4246123391619925
F1.0174263654316302
tp7695
tp7696
Rp7697
ag1
(g4134
(VHand Blenders
p7698
F4.322167487684729
F1.1504177703577718
tp7699
tp7700
Rp7701
ag1
(g4134
(VEyeglass Cases
p7702
F4.426751592356688
F0.8858128358777498
tp7703
tp7704
Rp7705
ag1
(g4134
(VBusiness & Office
p7706
F3.925650557620818
F1.3611247148497039
tp7707
tp7708
Rp7709
ag1
(g4134
(VParenting
p7710
F3.6666666666666665
F1.505545305418162
tp7711
tp7712
Rp7713
ag1
(g4134
(VTraditional Folk
p7714
F5.0
F0.0
tp7715
tp7716
Rp7717
ag1
(g4134
(VCommunication
p7718
F3.7180147058823527
F1.4741403058263867
tp7719
tp7720
Rp7721
ag1
(g4134
(VDrums & Percussion
p7722
F4.275
F1.0374401434695164
tp7723
tp7724
Rp7725
ag1
(g4134
(VHats
p7726
F4.269961977186312
F1.034330148305834
tp7727
tp7728
Rp7729
ag1
(g4134
(VCargo
p7730
F4.389140271493213
F0.9392763573716666
tp7731
tp7732
Rp7733
ag1
(g4134
(VFootrests
p7734
F3.7670454545454546
F1.1648393234050132
tp7735
tp7736
Rp7737
ag1
(g4134
(VSpark Plugs & Wires
p7738
F4.773584905660377
F0.6691415118229495
tp7739
tp7740
Rp7741
ag1
(g4134
(VFuselages
p7742
F4.4
F0.5477225575051661
tp7743
tp7744
Rp7745
ag1
(g4134
(VRock Salt
p7746
F4.96875
F0.17677669529663687
tp7747
tp7748
Rp7749
ag1
(g4134
(VVinyl Care
p7750
F4.6976744186046515
F0.7725925347854468
tp7751
tp7752
Rp7753
ag1
(g4134
(V7 For All Mankind
p7754
F3.4285714285714284
F1.2724180205607034
tp7755
tp7756
Rp7757
ag1
(g4134
(VBromelain
p7758
F4.491803278688525
F1.0586619041612884
tp7759
tp7760
Rp7761
ag1
(g4134
(VBeauty
p7762
F4.2126745435016115
F1.2115734394717483
tp7763
tp7764
Rp7765
ag1
(g4134
(VMarkers & Highlighters
p7766
F4.428789420142421
F0.8499455210261638
tp7767
tp7768
Rp7769
ag1
(g4134
(VWine Education & Games
p7770
F4.75
F0.750457735776515
tp7771
tp7772
Rp7773
ag1
(g4134
(VLightning Cables
p7774
F4.417745803357314
F1.0931969584489323
tp7775
tp7776
Rp7777
ag1
(g4134
(VOutdoor Decorator
p7778
F4.9
F0.31622776601683794
tp7779
tp7780
Rp7781
ag1
(g4134
(VCash Boxes
p7782
F4.363636363636363
F0.674199862463242
tp7783
tp7784
Rp7785
ag1
(g4134
(VFlower Essences
p7786
F3.9571428571428573
F1.3879424131330578
tp7787
tp7788
Rp7789
ag1
(g4134
(VBackpacks & Bags
p7790
F4.517241379310345
F1.0895834608815431
tp7791
tp7792
Rp7793
ag1
(g4134
(VImpact Reducing Gloves
p7794
F4.222222222222222
F1.092906420717
tp7795
tp7796
Rp7797
ag1
(g4134
(VHealth, Fitness & Dieting
p7798
F4.857142857142857
F0.3631365196012815
tp7799
tp7800
Rp7801
ag1
(g4134
(VBolero
p7802
F5.0
F0.0
tp7803
tp7804
Rp7805
ag1
(g4134
(VFake Eyelashes & Adhesives
p7806
F3.8812763960581886
F1.3732800473166733
tp7807
tp7808
Rp7809
ag1
(g4134
(VSmartMedia Cards
p7810
F4.810526315789474
F0.5114588405499584
tp7811
tp7812
Rp7813
ag1
(g4134
(VAir Filters & Accessories
p7814
F4.7084942084942085
F0.6712997662559486
tp7815
tp7816
Rp7817
ag1
(g4134
(VTires
p7818
F4.496777973052138
F0.9291212423744966
tp7819
tp7820
Rp7821
ag1
(g4134
(VToothpaste
p7822
F4.241847826086956
F1.0792513596081175
tp7823
tp7824
Rp7825
ag1
(g4134
(VLacrosse
p7826
F4.359477124183006
F1.0105651043180541
tp7827
tp7828
Rp7829
ag1
(g4134
(VCompasses
p7830
F4.54320987654321
F0.8810417515085394
tp7831
tp7832
Rp7833
ag1
(g4134
(VExotic Apparel
p7834
F3.823529411764706
F1.5582795943339716
tp7835
tp7836
Rp7837
ag1
(g4134
(VWinter Promo
p7838
F4.49
F0.9691712590109807
tp7839
tp7840
Rp7841
ag1
(g4134
(VCable Security Devices
p7842
F4.051612903225807
F1.3087580404543224
tp7843
tp7844
Rp7845
ag1
(g4134
(VEgypt
p7846
F4.655172413793103
F0.7209052874667636
tp7847
tp7848
Rp7849
ag1
(g4134
(VAnuschka
p7850
F4.8
F0.4472135954999579
tp7851
tp7852
Rp7853
ag1
(g4134
(VControversial Knowledge
p7854
F5.0
F0.0
tp7855
tp7856
Rp7857
ag1
(g4134
(VCream of Tartar
p7858
F5.0
F0.0
tp7859
tp7860
Rp7861
ag1
(g4134
(VXbox 360
p7862
F4.035187739463601
F1.2165535702772547
tp7863
tp7864
Rp7865
ag1
(g4134
(VAviation Electronics
p7866
F4.352941176470588
F1.1144485328583689
tp7867
tp7868
Rp7869
ag1
(g4134
(VEquipment Bags
p7870
F4.450549450549451
F0.9459120967350478
tp7871
tp7872
Rp7873
ag1
(g4134
(VSolar Chargers
p7874
F4.141479099678457
F1.2151926962740913
tp7875
tp7876
Rp7877
ag1
(g4134
(VDance
p7878
F4.642857142857143
F0.633323693776651
tp7879
tp7880
Rp7881
ag1
(g4134
(VFifty Watches Under $50
p7882
F4.17816091954023
F1.0737999391019422
tp7883
tp7884
Rp7885
ag1
(g4134
(VRoller Seats & Creepers
p7886
F4.64
F0.6999999999999998
tp7887
tp7888
Rp7889
ag1
(g4134
(VCrafts, Hobbies & Home
p7890
F4.75
F0.4522670168666454
tp7891
tp7892
Rp7893
ag1
(g4134
(VCondiments, Pickles & Relishes
p7894
F4.0
F1.4142135623730951
tp7895
tp7896
Rp7897
ag1
(g4134
(VStorage & Organization
p7898
F4.377707717371629
F1.0364782948313978
tp7899
tp7900
Rp7901
ag1
(g4134
(VClothing, Shoes & Jewelry
p7902
F4.281542056074766
F1.0769832438172682
tp7903
tp7904
Rp7905
ag1
(g4134
(VCandy & Chocolate
p7906
F4.302884615384615
F1.0899591563299444
tp7907
tp7908
Rp7909
ag1
(g4134
(VUkuleles
p7910
F4.372881355932203
F0.848899999893285
tp7911
tp7912
Rp7913
ag1
(g4134
(VComputer Cable Adapters
p7914
F4.025773195876289
F1.415808478493905
tp7915
tp7916
Rp7917
ag1
(g4134
(VSprayers & Accessories
p7918
F4.5
F0.8644719937377897
tp7919
tp7920
Rp7921
ag1
(g4134
(VPreludes
p7922
F4.342342342342342
F1.0224346655765566
tp7923
tp7924
Rp7925
ag1
(g4134
(VKamik
p7926
F3.9047619047619047
F0.9952267030562387
tp7927
tp7928
Rp7929
ag1
(g4134
(VButton-Down Shirts
p7930
F4.354166666666667
F0.9987378952646772
tp7931
tp7932
Rp7933
ag1
(g4134
(VSalt & Pepper Mill Sets
p7934
F4.23480947476828
F1.2067095242989705
tp7935
tp7936
Rp7937
ag1
(g4134
(VCostumes
p7938
F4.375
F1.0959411282189109
tp7939
tp7940
Rp7941
ag1
(g4134
(VHDD Cooling Fans
p7942
F3.6
F1.6733200530681511
tp7943
tp7944
Rp7945
ag1
(g4134
(VCollins Glasses
p7946
F4.6923076923076925
F0.6304251719561152
tp7947
tp7948
Rp7949
ag1
(g4134
(VInvicta
p7950
F4.255244755244755
F1.019701719606176
tp7951
tp7952
Rp7953
ag1
(g4134
(VFile Sorters
p7954
F4.405063291139241
F0.7598749448694248
tp7955
tp7956
Rp7957
ag1
(g4134
(VProtective Gear
p7958
F4.192427063935444
F1.079552360123609
tp7959
tp7960
Rp7961
ag1
(g4134
(VTab Inserts
p7962
F4.618421052631579
F0.6317616694747664
tp7963
tp7964
Rp7965
ag1
(g4134
(VSouth Africa
p7966
F4.5966386554621845
F0.7168590591577134
tp7967
tp7968
Rp7969
ag1
(g4134
(VCool Jazz
p7970
F4.564444444444445
F0.7886345442880652
tp7971
tp7972
Rp7973
ag1
(g4134
(VEuro Pop
p7974
F4.547528517110266
F0.9484943327111791
tp7975
tp7976
Rp7977
ag1
(g4134
(VCajun & Zydeco
p7978
F4.409090909090909
F1.0537502599713133
tp7979
tp7980
Rp7981
ag1
(g4134
(VEngines & Engine Parts
p7982
F4.62
F0.752953368748825
tp7983
tp7984
Rp7985
ag1
(g4134
(VRubbermaid
p7986
F4.536585365853658
F0.6744464758455542
tp7987
tp7988
Rp7989
ag1
(g4134
(VComponent Receivers
p7990
F4.127936982208339
F1.2217735850481468
tp7991
tp7992
Rp7993
ag1
(g4134
(VTrailers
p7994
F4.441935483870968
F0.9492883362491935
tp7995
tp7996
Rp7997
ag1
(g4134
(VSeat Clamps
p7998
F4.543478260869565
F0.9118119138197169
tp7999
tp8000
Rp8001
ag1
(g4134
(VNEOGEO Pocket
p8002
F4.6
F0.6992058987801009
tp8003
tp8004
Rp8005
ag1
(g4134
(VRims
p8006
F4.6
F0.9947229183096801
tp8007
tp8008
Rp8009
ag1
(g4134
(VCord Management
p8010
F2.6
F1.51657508881031
tp8011
tp8012
Rp8013
ag1
(g4134
(VHeadsets & Microphones
p8014
F3.9480862296524415
F1.2522106301425417
tp8015
tp8016
Rp8017
ag1
(g4134
(VBatteries & Chargers
p8018
F4.2741258741258745
F1.195387569249466
tp8019
tp8020
Rp8021
ag1
(g4134
(VDirect Boxes
p8022
F5.0
F0.0
tp8023
tp8024
Rp8025
ag1
(g4134
(VTapes, Adhesives & Sealants
p8026
F4.75
F0.5501196042201809
tp8027
tp8028
Rp8029
ag1
(g4134
(VRaised Garden Kits
p8030
F4.421052631578948
F0.6924826089821247
tp8031
tp8032
Rp8033
ag1
(g4134
(VVideo Monitors
p8034
F3.911764705882353
F1.1643087963517378
tp8035
tp8036
Rp8037
ag1
(g4134
(VPasta Molds & Stamps
p8038
F3.9714285714285715
F1.0706159383247373
tp8039
tp8040
Rp8041
ag1
(g4134
(VIndustrial & Construction
p8042
F4.359477124183006
F1.1157625377255125
tp8043
tp8044
Rp8045
ag1
(g4134
(VEnergy Drinks
p8046
F4.157894736842105
F1.1672930649220892
tp8047
tp8048
Rp8049
ag1
(g4134
(VNightgowns
p8050
F4.6
F0.5163977794943222
tp8051
tp8052
Rp8053
ag1
(g4134
(VSafety Glasses
p8054
F3.6666666666666665
F1.2110601416389966
tp8055
tp8056
Rp8057
ag1
(g4134
(VPower Pop
p8058
F4.2
F0.4472135954999579
tp8059
tp8060
Rp8061
ag1
(g4134
(VBooks & Comics
p8062
F4.140470044830866
F1.2976124591900429
tp8063
tp8064
Rp8065
ag1
(g4134
(VBalance Boards
p8066
F4.38125
F0.9033263129528313
tp8067
tp8068
Rp8069
ag1
(g4134
(VSarabande
p8070
F4.833333333333333
F0.6370220572706061
tp8071
tp8072
Rp8073
ag1
(g4134
(VPanel Screens
p8074
F4.371859296482412
F0.9756697054033845
tp8075
tp8076
Rp8077
ag1
(g4134
(VMaui Jim
p8078
F4.340909090909091
F1.0552897060221726
tp8079
tp8080
Rp8081
ag1
(g4134
(VColombia
p8082
F4.396774193548387
F1.0523463907823856
tp8083
tp8084
Rp8085
ag1
(g4134
(VCowboy
p8086
F4.551282051282051
F0.8775324894630798
tp8087
tp8088
Rp8089
ag1
(g4134
(VBars
p8090
F4.411016949152542
F1.0937566650149817
tp8091
tp8092
Rp8093
ag1
(g4134
(VCheese Plates
p8094
F4.769230769230769
F0.6516251872168423
tp8095
tp8096
Rp8097
ag1
(g4134
(VGifts for the Groom
p8098
F4.489932885906041
F0.9559023589204017
tp8099
tp8100
Rp8101
ag1
(g4134
(VStage Speaker Stands
p8102
F4.36
F0.9521904571390466
tp8103
tp8104
Rp8105
ag1
(g4134
(VCar Dash Mounting Kits
p8106
F4.75
F0.4629100498862757
tp8107
tp8108
Rp8109
ag1
(g4134
(VSwimsuits & Cover Ups
p8110
F4.066874027993779
F1.1668609652155304
tp8111
tp8112
Rp8113
ag1
(g4134
(VWater Filters
p8114
F4.615384615384615
F0.7679476477883044
tp8115
tp8116
Rp8117
ag1
(g4134
(VParaffin Baths
p8118
F4.197368421052632
F1.1316034269077988
tp8119
tp8120
Rp8121
ag1
(g4134
(VFootball
p8122
F4.4508670520231215
F0.8721544092747692
tp8123
tp8124
Rp8125
ag1
(g4134
(VEarly Development Toys
p8126
F4.7
F0.6749485577105531
tp8127
tp8128
Rp8129
ag1
(g4134
(VFirewire Adapters
p8130
F4.38135593220339
F1.1466748026352966
tp8131
tp8132
Rp8133
ag1
(g4134
(VDecals & Bumper Stickers
p8134
F4.428571428571429
F0.5345224838248488
tp8135
tp8136
Rp8137
ag1
(g4134
(VRaised Beds & Support Structures
p8138
F4.1437125748503
F0.9711218770173203
tp8139
tp8140
Rp8141
ag1
(g4134
(VGospel
p8142
F4.6
F0.894427190999916
tp8143
tp8144
Rp8145
ag1
(g4134
(VCold Weather Scarves & Wraps
p8146
F4.35
F1.0662901996717244
tp8147
tp8148
Rp8149
ag1
(g4134
(VCurlers
p8150
F3.957773512476008
F1.41494157073879
tp8151
tp8152
Rp8153
ag1
(g4134
(VJeans
p8154
F4.19089498189343
F1.1452268346535186
tp8155
tp8156
Rp8157
ag1
(g4134
(VGoblets & Chalices
p8158
F4.689075630252101
F0.726216705341243
tp8159
tp8160
Rp8161
ag1
(g4134
(VHealthy Living
p8162
F3.2857142857142856
F1.3801311186847083
tp8163
tp8164
Rp8165
ag1
(g4134
(VFoosball
p8166
F4.142857142857143
F0.6900655593423543
tp8167
tp8168
Rp8169
ag1
(g4134
(VLarge
p8170
F4.608695652173913
F0.8913284485317716
tp8171
tp8172
Rp8173
ag1
(g4134
(VBath Bombs
p8174
F4.714285714285714
F0.8934871726729446
tp8175
tp8176
Rp8177
ag1
(g4134
(VPolo Shirts
p8178
F4.547169811320755
F0.972032718186463
tp8179
tp8180
Rp8181
ag1
(g4134
(VDust Cloths
p8182
F4.541379310344827
F0.836046571350335
tp8183
tp8184
Rp8185
ag1
(g4134
(VBall Mounts
p8186
F4.875
F0.34156502553198664
tp8187
tp8188
Rp8189
ag1
(g4134
(VSocks
p8190
F4.348837209302325
F1.2513558538114637
tp8191
tp8192
Rp8193
ag1
(g4134
(VFungo & Training Bats
p8194
F4.571428571428571
F0.6761234037828133
tp8195
tp8196
Rp8197
ag1
(g4134
(VHumor
p8198
F4.333333333333333
F1.2110601416389966
tp8199
tp8200
Rp8201
ag1
(g4134
(VWaterless Wash Treatments
p8202
F4.6
F0.894427190999916
tp8203
tp8204
Rp8205
ag1
(g4134
(VNoels
p8206
F4.467552951780081
F0.9840773849344384
tp8207
tp8208
Rp8209
ag1
(g4134
(VPanniers & Rack Trunks
p8210
F4.3225283630470015
F0.9659939163127905
tp8211
tp8212
Rp8213
ag1
(g4134
(VBattery Grips
p8214
F4.340533672172808
F1.0670183181814843
tp8215
tp8216
Rp8217
ag1
(g4134
(VTask Chairs
p8218
F4.099099099099099
F0.9812325732553739
tp8219
tp8220
Rp8221
ag1
(g4134
(VCologne
p8222
F4.082687338501292
F1.272826813156467
tp8223
tp8224
Rp8225
ag1
(g4134
(VBatting Helmets
p8226
F4.4
F1.3416407864998738
tp8227
tp8228
Rp8229
ag1
(g4134
(VSoftballs
p8230
F4.631578947368421
F0.4955946277833521
tp8231
tp8232
Rp8233
ag1
((lp8234
S'categories[0]'
p8235
aS'avg(overall)'
p8236
aS'stddev_samp(CAST(overall AS DOUBLE))'
p8237
a(VBelts
p8238
F4.339639243290805
F1.0247377078049358
tp8239
tp8240
Rp8241
ag1
(g8234
(Vpediped
p8242
F4.588235294117647
F0.898364527087647
tp8243
tp8244
Rp8245
ag1
(g8234
(VGift Cards
p8246
F4.748989898989899
F0.7277950876724931
tp8247
tp8248
Rp8249
ag1
(g8234
(VFOSSIL
p8250
F4.549295774647887
F0.78900900582161
tp8251
tp8252
Rp8253
ag1
(g8234
(VHot Water Dispensers
p8254
F3.9
F1.4742691028964496
tp8255
tp8256
Rp8257
ag1
(g8234
(VKids' Bikes
p8258
F4.385542168674699
F0.9856448341333585
tp8259
tp8260
Rp8261
ag1
(g8234
(Vindigo by Clarks
p8262
F4.333333333333333
F0.816496580927726
tp8263
tp8264
Rp8265
ag1
(g8234
(VRice & Potato Servers
p8266
F4.7
F0.6569466853317864
tp8267
tp8268
Rp8269
ag1
(g8234
(VOutdoor Volleyballs
p8270
F4.410256410256411
F0.7853242279784399
tp8271
tp8272
Rp8273
ag1
(g8234
(VRakes, Skimmers, & Nets
p8274
F4.181818181818182
F0.8738628975053028
tp8275
tp8276
Rp8277
ag1
(g8234
(VOutdoor Gear
p8278
F4.504823151125402
F0.8342328236814095
tp8279
tp8280
Rp8281
ag1
(g8234
(VSleeping Bag Accessories
p8282
F4.290322580645161
F0.9882108514554591
tp8283
tp8284
Rp8285
ag1
(g8234
(VInline & Roller Skating
p8286
F4.466666666666667
F0.9154754164341268
tp8287
tp8288
Rp8289
ag1
(g8234
(VPortable Audio & Video
p8290
F4.219594594594595
F1.1725132678926224
tp8291
tp8292
Rp8293
ag1
(g8234
(VIn-Dash Navigation
p8294
F3.714867617107943
F1.2905318207615757
tp8295
tp8296
Rp8297
ag1
(g8234
(VJuniors
p8298
F4.148246546227417
F1.1304210667707513
tp8299
tp8300
Rp8301
ag1
(g8234
(VCoach & Referee Gear
p8302
F4.474308300395257
F0.986180309571422
tp8303
tp8304
Rp8305
ag1
(g8234
(VPlaying Field Equipment
p8306
F4.4375
F0.9432007525306946
tp8307
tp8308
Rp8309
ag1
(g8234
(VSweatpants
p8310
F4.073170731707317
F1.1544199560053956
tp8311
tp8312
Rp8313
ag1
(g8234
(VSewing
p8314
F4.142857142857143
F1.4638501094227998
tp8315
tp8316
Rp8317
ag1
(g8234
(VCompression Shorts
p8318
F4.277255639097745
F1.0233444452793348
tp8319
tp8320
Rp8321
ag1
(g8234
(VMouthguards
p8322
F4.1640625
F1.061093359533957
tp8323
tp8324
Rp8325
ag1
(g8234
(VIce Axes
p8326
F4.8
F0.4472135954999579
tp8327
tp8328
Rp8329
ag1
(g8234
(VSesame Seed
p8330
F4.6923076923076925
F0.6304251719561152
tp8331
tp8332
Rp8333
ag1
(g8234
(VAC Adapters
p8334
F4.2921139554087535
F1.198427866949424
tp8335
tp8336
Rp8337
ag1
(g8234
(VSubwoofers
p8338
F4.380169971671388
F1.0874218894481924
tp8339
tp8340
Rp8341
ag1
(g8234
(VCases & Protectors
p8342
F4.297971918876755
F1.073900137564112
tp8343
tp8344
Rp8345
ag1
(g8234
(VGarlic Keepers
p8346
F4.563380281690141
F0.8752206357870383
tp8347
tp8348
Rp8349
ag1
(g8234
(VNew Balance
p8350
F4.261261261261262
F1.1655019341016808
tp8351
tp8352
Rp8353
ag1
(g8234
(VSashimi Knives
p8354
F4.481481481481482
F0.8024179982245188
tp8355
tp8356
Rp8357
ag1
(g8234
(VInterior Care
p8358
F4.416666666666667
F0.7929614610987591
tp8359
tp8360
Rp8361
ag1
(g8234
(VTelephone Accessories
p8362
F3.7
F1.5670212364724212
tp8363
tp8364
Rp8365
ag1
(g8234
(VVanities
p8366
F4.571428571428571
F0.6462061726588638
tp8367
tp8368
Rp8369
ag1
(g8234
(VFuel
p8370
F4.6
F0.894427190999916
tp8371
tp8372
Rp8373
ag1
(g8234
(VBeginner Kits
p8374
F4.4
F1.187655806953123
tp8375
tp8376
Rp8377
ag1
(g8234
(VDiet & Nutrition
p8378
F4.75
F0.46291004988627593
tp8379
tp8380
Rp8381
ag1
(g8234
(VDance Pop
p8382
F4.131916038751346
F1.182603364599577
tp8383
tp8384
Rp8385
ag1
(g8234
(VDaniel Green
p8386
F3.814159292035398
F1.2785920867890175
tp8387
tp8388
Rp8389
ag1
(g8234
(VFuel Pressure Testers
p8390
F4.588235294117647
F0.7952062255644575
tp8391
tp8392
Rp8393
ag1
(g8234
(VHeadphones
p8394
F4.105263157894737
F1.1905012528690204
tp8395
tp8396
Rp8397
ag1
(g8234
(VTowing Mirrors
p8398
F4.2592592592592595
F1.1020595673587652
tp8399
tp8400
Rp8401
ag1
(g8234
(VLeaders & Leader Rigging
p8402
F4.666666666666667
F0.6370220572706061
tp8403
tp8404
Rp8405
ag1
(g8234
(VYellow Box
p8406
F4.777777777777778
F0.5595813731096784
tp8407
tp8408
Rp8409
ag1
(g8234
(VGrasses
p8410
F3.2
F1.6431676725154984
tp8411
tp8412
Rp8413
ag1
(g8234
(VMath Materials
p8414
F4.529411764705882
F0.7998161553463028
tp8415
tp8416
Rp8417
ag1
(g8234
(VHorses
p8418
F4.8
F0.4472135954999579
tp8419
tp8420
Rp8421
ag1
(g8234
(VFire Pits & Outdoor Fireplaces
p8422
F4.2
F0.4472135954999579
tp8423
tp8424
Rp8425
ag1
(g8234
(VLaura Ashley
p8426
F4.0
F1.2649110640673518
tp8427
tp8428
Rp8429
ag1
(g8234
(VEau de Parfum
p8430
F4.283996299722479
F1.201115144351668
tp8431
tp8432
Rp8433
ag1
(g8234
(VUSB Port Cards
p8434
F4.1549514563106795
F1.3088032530888867
tp8435
tp8436
Rp8437
ag1
(g8234
(VExercise Videos
p8438
F4.393145161290323
F1.0113863807709016
tp8439
tp8440
Rp8441
ag1
(g8234
(VRepair Tools & Kits
p8442
F4.083937823834197
F1.2060536432186528
tp8443
tp8444
Rp8445
ag1
(g8234
(VKindle Fire Covers
p8446
F4.381489841986456
F1.0118396586446312
tp8447
tp8448
Rp8449
ag1
(g8234
(VTrack & Field
p8450
F4.56
F0.8121525944886796
tp8451
tp8452
Rp8453
ag1
(g8234
(VRoxy
p8454
F4.346534653465347
F0.9842321226657502
tp8455
tp8456
Rp8457
ag1
(g8234
(VH
p8458
F4.5
F0.9393364366277244
tp8459
tp8460
Rp8461
ag1
(g8234
(VActive Hoodies
p8462
F4.121693121693122
F1.1161318513419893
tp8463
tp8464
Rp8465
ag1
(g8234
(VGolf Cart Accessories
p8466
F4.161290322580645
F1.2137208408731774
tp8467
tp8468
Rp8469
ag1
(g8234
(VSecurity & Surveillance
p8470
F3.9756176328112387
F1.3076078237364541
tp8471
tp8472
Rp8473
ag1
(g8234
(VScreen Protectors
p8474
F4.146584430173163
F1.2214021754886097
tp8475
tp8476
Rp8477
ag1
(g8234
(VNews
p8478
F4.111846946284032
F1.244416219806136
tp8479
tp8480
Rp8481
ag1
(g8234
(VMakeup
p8482
F4.212000836295212
F1.1627344096577088
tp8483
tp8484
Rp8485
ag1
(g8234
(VOn-Course Accessories
p8486
F4.464285714285714
F0.9427336861855811
tp8487
tp8488
Rp8489
ag1
(g8234
(VBike Pack Accessories
p8490
F4.364312267657993
F0.9751042493462797
tp8491
tp8492
Rp8493
ag1
(g8234
(VSleep Bottoms
p8494
F4.421383647798742
F0.9833013870149867
tp8495
tp8496
Rp8497
ag1
(g8234
(VPrinter Accessories
p8498
F4.647058823529412
F0.49259218307188896
tp8499
tp8500
Rp8501
ag1
(g8234
(VMali
p8502
F4.625
F0.735621669410526
tp8503
tp8504
Rp8505
ag1
(g8234
(VSlides
p8506
F4.295454545454546
F0.9542937350572707
tp8507
tp8508
Rp8509
ag1
(g8234
(VHalloween
p8510
F4.958333333333333
F0.20412414523193148
tp8511
tp8512
Rp8513
ag1
(g8234
(VBaking
p8514
F5.0
F0.0
tp8515
tp8516
Rp8517
ag1
(g8234
(VClassical Guitar Strings
p8518
F4.696969696969697
F0.7699370300894939
tp8519
tp8520
Rp8521
ag1
(g8234
(VLadder Ball
p8522
F4.241379310344827
F1.0574623402207863
tp8523
tp8524
Rp8525
ag1
(g8234
(VHurdles
p8526
F4.5
F1.0690449676496976
tp8527
tp8528
Rp8529
ag1
(g8234
(VCookies
p8530
F4.133333333333334
F1.4074631010979937
tp8531
tp8532
Rp8533
ag1
(g8234
(VNail Repair
p8534
F3.6551724137931036
F1.5022459571158369
tp8535
tp8536
Rp8537
ag1
(g8234
(VHandlebars, Headsets & Stems
p8538
F4.538243626062323
F0.794619951679042
tp8539
tp8540
Rp8541
ag1
(g8234
(VManual Juicers
p8542
F4.275132275132275
F1.116358339052114
tp8543
tp8544
Rp8545
ag1
(g8234
(VFashion Sneakers
p8546
F4.172131147540983
F1.0703420752711095
tp8547
tp8548
Rp8549
ag1
(g8234
(VAcoustic & Classical Guitar Parts
p8550
F4.36969696969697
F0.9577937199897152
tp8551
tp8552
Rp8553
ag1
(g8234
(VFoot Rasps
p8554
F4.158730158730159
F1.1129255027193754
tp8555
tp8556
Rp8557
ag1
(g8234
(VCamp Bedding
p8558
F4.433333333333334
F0.8672417160820663
tp8559
tp8560
Rp8561
ag1
(g8234
(VCastors
p8562
F4.229166666666667
F1.2245638968990766
tp8563
tp8564
Rp8565
ag1
(g8234
(VDystopian
p8566
F4.684210526315789
F0.5744686455769947
tp8567
tp8568
Rp8569
ag1
(g8234
(VSchool Uniforms
p8570
F4.516129032258065
F0.6768046366042658
tp8571
tp8572
Rp8573
ag1
(g8234
(VPregnancy & Maternity
p8574
F4.0
F1.2060453783110545
tp8575
tp8576
Rp8577
ag1
(g8234
(VActive Pants
p8578
F4.108084358523726
F1.140794529363104
tp8579
tp8580
Rp8581
ag1
(g8234
(VRap Rock
p8582
F3.912593984962406
F1.3835722237751693
tp8583
tp8584
Rp8585
ag1
(g8234
(VEvening Bags
p8586
F4.565656565656566
F0.8449505576694484
tp8587
tp8588
Rp8589
ag1
(g8234
(VKitchen Sinks
p8590
F4.72
F0.7295511619887831
tp8591
tp8592
Rp8593
ag1
(g8234
(VPlace Mats
p8594
F4.401006711409396
F0.9572012739996106
tp8595
tp8596
Rp8597
ag1
(g8234
(VSensor Bars
p8598
F4.3108108108108105
F1.071750273453965
tp8599
tp8600
Rp8601
ag1
(g8234
(VFuel Transfer & Lubrication
p8602
F4.4125
F1.0055662693291667
tp8603
tp8604
Rp8605
ag1
(g8234
(VVideo Glasses
p8606
F4.127226463104326
F1.113047247705347
tp8607
tp8608
Rp8609
ag1
(g8234
(VAircraft Accessories
p8610
F4.642857142857143
F0.7265497673662352
tp8611
tp8612
Rp8613
ag1
(g8234
(VGarden Netting
p8614
F3.95
F1.0500626547722611
tp8615
tp8616
Rp8617
ag1
(g8234
(VLuggage Straps
p8618
F3.642857142857143
F1.3926810257774176
tp8619
tp8620
Rp8621
ag1
(g8234
(VSpeaker Repair
p8622
F4.054054054054054
F1.2916156590630066
tp8623
tp8624
Rp8625
ag1
(g8234
(VBody Jewelry
p8626
F4.294117647058823
F1.212678125181665
tp8627
tp8628
Rp8629
ag1
(g8234
(VPaper Products
p8630
F3.7142857142857144
F1.6035674514745464
tp8631
tp8632
Rp8633
ag1
(g8234
(VCoriander
p8634
F5.0
F0.0
tp8635
tp8636
Rp8637
a.