(lp0
cpyspark.sql.types
_create_row
p1
((lp2
S'productID'
p3
aS'avg_overall'
p4
a(VB004NSUXHU
p5
F4.890322580645162
tp6
tp7
Rp8
ag1
((lp9
S'productID'
p10
aS'avg_overall'
p11
a(VB001HBHNHE
p12
F4.879078694817658
tp13
tp14
Rp15
ag1
(g9
(VB0052SCU8U
p16
F4.859760394644115
tp17
tp18
Rp19
ag1
((lp20
S'productID'
p21
aS'avg_overall'
p22
a(VB001TH7GUU
p23
F4.829289428076256
tp24
tp25
Rp26
ag1
(g20
(VB0019EHU8G
p27
F4.801164483260553
tp28
tp29
Rp30
ag1
(g20
(VB003ES5ZUU
p31
F4.800386193579532
tp32
tp33
Rp34
ag1
(g20
(VB000QUUFRW
p35
F4.7936507936507935
tp36
tp37
Rp38
ag1
((lp39
S'productID'
p40
aS'avg_overall'
p41
a(VB00E3W15P0
p42
F4.792913385826772
tp43
tp44
Rp45
ag1
(g39
(VB00316263Y
p46
F4.776276276276277
tp47
tp48
Rp49
ag1
(g39
(V1608838137
p50
F4.775748721694668
tp51
tp52
Rp53
ag1
(g39
(VB001TH7GSW
p54
F4.7625
tp55
tp56
Rp57
ag1
(g39
(VB000LRMS66
p58
F4.7454081632653065
tp59
tp60
Rp61
ag1
(g39
(VB0000AQS0F
p62
F4.740829346092504
tp63
tp64
Rp65
ag1
(g39
(VB002V88HFE
p66
F4.736311239193084
tp67
tp68
Rp69
ag1
(g39
(VB007R5YDYA
p70
F4.703802535023349
tp71
tp72
Rp73
ag1
((lp74
S'productID'
p75
aS'avg_overall'
p76
a(VB000BQ7GW8
p77
F4.695965417867435
tp78
tp79
Rp80
ag1
(g74
(VB007ZGO7EM
p81
F4.689097103918228
tp82
tp83
Rp84
ag1
(g74
(VB0055SWM08
p85
F4.684656900539707
tp86
tp87
Rp88
ag1
(g74
(VB006D1ONE4
p89
F4.675236806495264
tp90
tp91
Rp92
ag1
(g74
(VB002ZG97E2
p93
F4.667638483965015
tp94
tp95
Rp96
ag1
(g74
(VB00006JSUA
p97
F4.6644736842105265
tp98
tp99
Rp100
ag1
(g74
(VB003ZBZ64Q
p101
F4.66281310211946
tp102
tp103
Rp104
ag1
(g74
(VB002WE6D44
p105
F4.65979381443299
tp106
tp107
Rp108
ag1
(g74
(VB00C7TAF3Y
p109
F4.659113300492611
tp110
tp111
Rp112
ag1
(g74
(VB004XC6GJ0
p113
F4.6407967032967035
tp114
tp115
Rp116
ag1
(g74
(VB000VX6XL6
p117
F4.60668380462725
tp118
tp119
Rp120
ag1
(g74
(VB0002L5R78
p121
F4.599846094651789
tp122
tp123
Rp124
ag1
(g74
(VB004MC8CA2
p125
F4.59921607055365
tp126
tp127
Rp128
ag1
(g74
(VB007VUA7VO
p129
F4.598130841121495
tp130
tp131
Rp132
ag1
(g74
(VB0063GORYU
p133
F4.59482155353394
tp134
tp135
Rp136
ag1
(g74
(VB00007E7JU
p137
F4.588741204065676
tp138
tp139
Rp140
ag1
((lp141
S'productID'
p142
aS'avg_overall'
p143
a(VB007WTAJTO
p144
F4.587589013224822
tp145
tp146
Rp147
ag1
(g141
(VB009UX2YAC
p148
F4.581541688515994
tp149
tp150
Rp151
ag1
(g141
(VB0069G5Z9K
p152
F4.579045837231057
tp153
tp154
Rp155
ag1
(g141
(VB004W2JKWG
p156
F4.575697211155378
tp157
tp158
Rp159
ag1
(g141
(VB007PTJOV0
p160
F4.575068243858053
tp161
tp162
Rp163
ag1
(g141
(VB0074BW614
p164
F4.567907201546641
tp165
tp166
Rp167
ag1
(g141
(VB00AREIAI8
p168
F4.567392134402444
tp169
tp170
Rp171
ag1
(g141
(VB0086700CM
p172
F4.566314427431529
tp173
tp174
Rp175
ag1
(g141
(VB008JGSM6G
p176
F4.556979096426163
tp177
tp178
Rp179
ag1
(g141
(VB004GF8TIK
p180
F4.555647840531561
tp181
tp182
Rp183
ag1
(g141
(VB00FZM8Z7I
p184
F4.547132498352011
tp185
tp186
Rp187
ag1
(g141
(VB005FYNSPK
p188
F4.542993630573249
tp189
tp190
Rp191
ag1
(g141
(VB0015AARJI
p192
F4.542713567839196
tp193
tp194
Rp195
ag1
(g141
(VB0038M2APA
p196
F4.5424124513618676
tp197
tp198
Rp199
ag1
(g141
(VB008XG1X18
p200
F4.542256738236638
tp201
tp202
Rp203
ag1
(g141
(VB006W8U2MU
p204
F4.542195668409261
tp205
tp206
Rp207
ag1
(g141
(VB006OC2ANS
p208
F4.5397951142632
tp209
tp210
Rp211
ag1
(g141
(VB004HGK6FW
p212
F4.539399624765478
tp213
tp214
Rp215
ag1
(g141
(VB00BG3ID0Y
p216
F4.535617673579802
tp217
tp218
Rp219
ag1
(g141
(VB001KVZ6HK
p220
F4.519431279620853
tp221
tp222
Rp223
ag1
(g141
(VB005HMKKH4
p224
F4.517684887459807
tp225
tp226
Rp227
ag1
(g141
(VB004G6002M
p228
F4.510533707865169
tp229
tp230
Rp231
ag1
(g141
(VB0041Q38NU
p232
F4.509933774834437
tp233
tp234
Rp235
ag1
(g141
(VB000S5Q9CA
p236
F4.504205838693716
tp237
tp238
Rp239
ag1
(g141
(VB00003CWT6
p240
F4.5036496350364965
tp241
tp242
Rp243
ag1
(g141
(VB0067VKQLE
p244
F4.4932203389830505
tp245
tp246
Rp247
ag1
(g141
(VB0058VW36U
p248
F4.492561983471075
tp249
tp250
Rp251
ag1
(g141
(VB0037KMI0U
p252
F4.480257116620753
tp253
tp254
Rp255
ag1
(g141
(VB00BPC23XO
p256
F4.4729370008873115
tp257
tp258
Rp259
ag1
(g141
(VB00992CF6W
p260
F4.472872075659532
tp261
tp262
Rp263
ag1
(g141
(VB00622AG6S
p264
F4.472514619883041
tp265
tp266
Rp267
ag1
(g141
(VB006GWO5WK
p268
F4.470957095709571
tp269
tp270
Rp271
ag1
((lp272
S'productID'
p273
aS'avg_overall'
p274
a(VB0043T7FXE
p275
F4.46
tp276
tp277
Rp278
ag1
(g272
(VB00CSR2J9I
p279
F4.458904109589041
tp280
tp281
Rp282
ag1
(g272
(VB008Y7SMQU
p283
F4.4552605703048185
tp284
tp285
Rp286
ag1
(g272
(VB005DOK8NW
p287
F4.448979591836735
tp288
tp289
Rp290
ag1
(g272
(VB009SYZ8OC
p291
F4.44492525570417
tp292
tp293
Rp294
ag1
(g272
(VB001XURP7W
p295
F4.441077441077441
tp296
tp297
Rp298
ag1
(g272
(VB007JPG04E
p299
F4.438023450586265
tp300
tp301
Rp302
ag1
(g272
(VB00I8Q77Y0
p303
F4.428621908127209
tp304
tp305
Rp306
ag1
(g272
(VB008OHNZI0
p307
F4.425293217746048
tp308
tp309
Rp310
ag1
(g272
(VB0063IH60K
p311
F4.4238372093023255
tp312
tp313
Rp314
ag1
(g272
(VB00BGGDVOO
p315
F4.4215779467680605
tp316
tp317
Rp318
ag1
(g272
(VB00AIQP9DE
p319
F4.418786692759295
tp320
tp321
Rp322
ag1
(g272
(VB007I5JT4S
p323
F4.404132231404959
tp324
tp325
Rp326
ag1
(g272
(VB0088QGB7Y
p327
F4.403767403767404
tp328
tp329
Rp330
ag1
(g272
(VB008JK6W5K
p331
F4.385954008701057
tp332
tp333
Rp334
ag1
(g272
(VB0012S4APK
p335
F4.37992277992278
tp336
tp337
Rp338
ag1
(g272
(VB005LAIHZY
p339
F4.378450578806768
tp340
tp341
Rp342
ag1
(g272
(VB00BT7RAPG
p343
F4.376635514018692
tp344
tp345
Rp346
ag1
(g272
(VB009G9KFQ0
p347
F4.369883040935672
tp348
tp349
Rp350
ag1
(g272
(VB00E5GJ7QS
p351
F4.366388308977036
tp352
tp353
Rp354
ag1
(g272
(VB00FAPF5U0
p355
F4.36453358802929
tp356
tp357
Rp358
ag1
(g272
(VB004SJ3BCI
p359
F4.356772062293535
tp360
tp361
Rp362
ag1
(g272
(VB003ELYQGG
p363
F4.355957767722473
tp364
tp365
Rp366
ag1
(g272
(VB00B2TET3C
p367
F4.352124891587164
tp368
tp369
Rp370
ag1
(g272
(VB005V1N71W
p371
F4.346799818429415
tp372
tp373
Rp374
ag1
(g272
(VB00CWY76CC
p375
F4.334328358208955
tp376
tp377
Rp378
ag1
(g272
(VB00DJFIMW6
p379
F4.3309314117961035
tp380
tp381
Rp382
ag1
(g272
(VB00B2V66VS
p383
F4.321608040201005
tp384
tp385
Rp386
ag1
(g272
(VB005ZFOOE8
p387
F4.3203026481715
tp388
tp389
Rp390
ag1
(g272
(VB009934S5M
p391
F4.3120567375886525
tp392
tp393
Rp394
ag1
(g272
(VB0052YFYFK
p395
F4.309806835066865
tp396
tp397
Rp398
ag1
(g272
(VB008Y2FRFO
p399
F4.308574048601559
tp400
tp401
Rp402
ag1
(g272
(VB00BGA9WK2
p403
F4.307364576993305
tp404
tp405
Rp406
ag1
(g272
(VB00CZDSK7K
p407
F4.307347670250896
tp408
tp409
Rp410
ag1
(g272
(VB005DKZTMG
p411
F4.305626598465473
tp412
tp413
Rp414
ag1
(g272
(VB005LAIIHG
p415
F4.303330333033303
tp416
tp417
Rp418
ag1
(g272
(VB005ZXWMUS
p419
F4.298044085687675
tp420
tp421
Rp422
a.