(lp0
cpyspark.sql.types
_create_row
p1
((lp2
S'title'
p3
aS'salesRankCategories[0]'
p4
a(VAlex and Ani Initial Expandable Wire Bangle Bracelet, 7.25&quot;
p5
VJewelry
p6
tp7
tp8
Rp9
ag1
((lp10
S'title'
p11
aS'salesRankCategories[0]'
p12
a(VAlex and Ani Initial Expandable Wire Bangle Bracelet, 7.25&quot;
p13
VJewelry
p14
tp15
tp16
Rp17
ag1
(g10
(VAlex and Ani Initial Expandable Wire Bangle Bracelet, 7.25&quot;
p18
VJewelry
p19
tp20
tp21
Rp22
ag1
((lp23
S'title'
p24
aS'salesRankCategories[0]'
p25
a(VAlex and Ani Initial Expandable Wire Bangle Bracelet, 7.25&quot;
p26
VJewelry
p27
tp28
tp29
Rp30
ag1
(g23
(VAlex and Ani Initial Expandable Wire Bangle Bracelet, 7.25&quot;
p31
VJewelry
p32
tp33
tp34
Rp35
ag1
(g23
(VAlex and Ani Initial Expandable Wire Bangle Bracelet, 7.25&quot;
p36
VJewelry
p37
tp38
tp39
Rp40
ag1
(g23
(VAlex and Ani Initial Expandable Wire Bangle Bracelet, 7.25&quot;
p41
VJewelry
p42
tp43
tp44
Rp45
ag1
((lp46
S'title'
p47
aS'salesRankCategories[0]'
p48
a(VAlex and Ani Initial Expandable Wire Bangle Bracelet, 7.25&quot;
p49
VJewelry
p50
tp51
tp52
Rp53
ag1
(g46
(VAlex and Ani Initial Expandable Wire Bangle Bracelet, 7.25&quot;
p54
VJewelry
p55
tp56
tp57
Rp58
ag1
(g46
(VAlex and Ani Initial Expandable Wire Bangle Bracelet, 7.25&quot;
p59
VJewelry
p60
tp61
tp62
Rp63
ag1
(g46
(VAlex and Ani Initial Expandable Wire Bangle Bracelet, 7.25&quot;
p64
VJewelry
p65
tp66
tp67
Rp68
ag1
(g46
(VAlex and Ani Initial Expandable Wire Bangle Bracelet, 7.25&quot;
p69
VJewelry
p70
tp71
tp72
Rp73
ag1
(g46
(VAlex and Ani Initial Expandable Wire Bangle Bracelet, 7.25&quot;
p74
VJewelry
p75
tp76
tp77
Rp78
ag1
(g46
(VAlex and Ani Initial Expandable Wire Bangle Bracelet, 7.25&quot;
p79
VJewelry
p80
tp81
tp82
Rp83
ag1
(g46
(VAlex and Ani Initial Expandable Wire Bangle Bracelet, 7.25&quot;
p84
VJewelry
p85
tp86
tp87
Rp88
ag1
((lp89
S'title'
p90
aS'salesRankCategories[0]'
p91
a(VAlex and Ani Initial Expandable Wire Bangle Bracelet, 7.25&quot;
p92
VJewelry
p93
tp94
tp95
Rp96
ag1
(g89
(VAlex and Ani Initial Expandable Wire Bangle Bracelet, 7.25&quot;
p97
VJewelry
p98
tp99
tp100
Rp101
ag1
(g89
(VAlex and Ani Initial Expandable Wire Bangle Bracelet, 7.25&quot;
p102
VJewelry
p103
tp104
tp105
Rp106
ag1
(g89
(VAlex and Ani Initial Expandable Wire Bangle Bracelet, 7.25&quot;
p107
VJewelry
p108
tp109
tp110
Rp111
ag1
(g89
(VAlex and Ani Initial Expandable Wire Bangle Bracelet, 7.25&quot;
p112
VJewelry
p113
tp114
tp115
Rp116
ag1
(g89
(VAlex and Ani Initial Expandable Wire Bangle Bracelet, 7.25&quot;
p117
VJewelry
p118
tp119
tp120
Rp121
ag1
(g89
(VAlex and Ani Initial Expandable Wire Bangle Bracelet, 7.25&quot;
p122
VJewelry
p123
tp124
tp125
Rp126
ag1
(g89
(VAlex and Ani Initial Expandable Wire Bangle Bracelet, 7.25&quot;
p127
VJewelry
p128
tp129
tp130
Rp131
ag1
(g89
(VAlex and Ani Initial Expandable Wire Bangle Bracelet, 7.25&quot;
p132
VJewelry
p133
tp134
tp135
Rp136
ag1
(g89
(VAlex and Ani Initial Expandable Wire Bangle Bracelet, 7.25&quot;
p137
VJewelry
p138
tp139
tp140
Rp141
ag1
(g89
(VAlex and Ani Initial Expandable Wire Bangle Bracelet, 7.25&quot;
p142
VJewelry
p143
tp144
tp145
Rp146
ag1
(g89
(VAlex and Ani Initial Expandable Wire Bangle Bracelet, 7.25&quot;
p147
VJewelry
p148
tp149
tp150
Rp151
ag1
(g89
(VAlex and Ani Initial Expandable Wire Bangle Bracelet, 7.25&quot;
p152
VJewelry
p153
tp154
tp155
Rp156
ag1
(g89
(VAlex and Ani Initial Expandable Wire Bangle Bracelet, 7.25&quot;
p157
VJewelry
p158
tp159
tp160
Rp161
ag1
(g89
(VAlex and Ani Initial Expandable Wire Bangle Bracelet, 7.25&quot;
p162
VJewelry
p163
tp164
tp165
Rp166
ag1
(g89
(VAlex and Ani Initial Expandable Wire Bangle Bracelet, 7.25&quot;
p167
VJewelry
p168
tp169
tp170
Rp171
ag1
((lp172
S'title'
p173
aS'salesRankCategories[0]'
p174
a(VAlex and Ani Initial Expandable Wire Bangle Bracelet, 7.25&quot;
p175
VJewelry
p176
tp177
tp178
Rp179
ag1
(g172
(VAlex and Ani Initial Expandable Wire Bangle Bracelet, 7.25&quot;
p180
VJewelry
p181
tp182
tp183
Rp184
ag1
(g172
(VAlex and Ani Initial Expandable Wire Bangle Bracelet, 7.25&quot;
p185
VJewelry
p186
tp187
tp188
Rp189
ag1
(g172
(VAlex and Ani Initial Expandable Wire Bangle Bracelet, 7.25&quot;
p190
VJewelry
p191
tp192
tp193
Rp194
ag1
(g172
(VAlex and Ani Initial Expandable Wire Bangle Bracelet, 7.25&quot;
p195
VJewelry
p196
tp197
tp198
Rp199
ag1
(g172
(VAlex and Ani Initial Expandable Wire Bangle Bracelet, 7.25&quot;
p200
VJewelry
p201
tp202
tp203
Rp204
ag1
(g172
(VAlex and Ani Initial Expandable Wire Bangle Bracelet, 7.25&quot;
p205
VJewelry
p206
tp207
tp208
Rp209
ag1
(g172
(VAlex and Ani Initial Expandable Wire Bangle Bracelet, 7.25&quot;
p210
VJewelry
p211
tp212
tp213
Rp214
ag1
(g172
(VAlex and Ani Initial Expandable Wire Bangle Bracelet, 7.25&quot;
p215
VJewelry
p216
tp217
tp218
Rp219
ag1
(g172
(VWeber 6492 Original Instant-Read Thermometer
p220
VPatio, Lawn & Garden
p221
tp222
tp223
Rp224
ag1
(g172
(VPampers Sensitive Wipes 7x Box 448 Count
p225
VHealth & Personal Care
p226
tp227
tp228
Rp229
ag1
(g172
(VGeorgia-Pacific Signature 21000 White 2-Ply Premium Multifold Paper Towel, 9.4&quot; Length x 9.2&quot; Width (Case of 16 Packs, 125 per Pack)
p230
VIndustrial & Scientific
p231
tp232
tp233
Rp234
ag1
(g172
(VSanuk Women's Yoga Sling 2 Flip Flop
p235
VShoes
p236
tp237
tp238
Rp239
ag1
(g172
(VSanuk Women's Yoga Sling 2 Flip Flop
p240
VShoes
p241
tp242
tp243
Rp244
ag1
(g172
(VSanuk Women's Yoga Sling 2 Flip Flop
p245
VShoes
p246
tp247
tp248
Rp249
ag1
(g172
(VSanuk Women's Yoga Sling 2 Flip Flop
p250
VShoes
p251
tp252
tp253
Rp254
ag1
(g172
(VSanuk Women's Yoga Sling 2 Flip Flop
p255
VShoes
p256
tp257
tp258
Rp259
ag1
(g172
(VSanuk Women's Yoga Sling 2 Flip Flop
p260
VShoes
p261
tp262
tp263
Rp264
ag1
(g172
(VSanuk Women's Yoga Sling 2 Flip Flop
p265
VShoes
p266
tp267
tp268
Rp269
ag1
(g172
(VSanuk Women's Yoga Sling 2 Flip Flop
p270
VShoes
p271
tp272
tp273
Rp274
ag1
(g172
(VSanuk Women's Yoga Sling 2 Flip Flop
p275
VShoes
p276
tp277
tp278
Rp279
ag1
(g172
(VSanuk Women's Yoga Sling 2 Flip Flop
p280
VShoes
p281
tp282
tp283
Rp284
ag1
(g172
(VSanuk Women's Yoga Sling 2 Flip Flop
p285
VShoes
p286
tp287
tp288
Rp289
ag1
(g172
(VSanuk Women's Yoga Sling 2 Flip Flop
p290
VShoes
p291
tp292
tp293
Rp294
ag1
(g172
(VSanuk Women's Yoga Sling 2 Flip Flop
p295
VShoes
p296
tp297
tp298
Rp299
ag1
(g172
(VSanuk Women's Yoga Sling 2 Flip Flop
p300
VShoes
p301
tp302
tp303
Rp304
ag1
(g172
(VSanuk Women's Yoga Sling 2 Flip Flop
p305
VShoes
p306
tp307
tp308
Rp309
ag1
(g172
(VSanuk Women's Yoga Sling 2 Flip Flop
p310
VShoes
p311
tp312
tp313
Rp314
ag1
(g172
(VSanuk Women's Yoga Sling 2 Flip Flop
p315
VShoes
p316
tp317
tp318
Rp319
ag1
(g172
(VSanuk Women's Yoga Sling 2 Flip Flop
p320
VShoes
p321
tp322
tp323
Rp324
ag1
(g172
(VSanuk Women's Yoga Sling 2 Flip Flop
p325
VShoes
p326
tp327
tp328
Rp329
ag1
(g172
(VSanuk Women's Yoga Sling 2 Flip Flop
p330
VShoes
p331
tp332
tp333
Rp334
ag1
((lp335
S'title'
p336
aS'salesRankCategories[0]'
p337
a(VSanuk Women's Yoga Sling 2 Flip Flop
p338
VShoes
p339
tp340
tp341
Rp342
ag1
(g335
(VSanuk Women's Yoga Sling 2 Flip Flop
p343
VShoes
p344
tp345
tp346
Rp347
ag1
(g335
(VSanuk Women's Yoga Sling 2 Flip Flop
p348
VShoes
p349
tp350
tp351
Rp352
ag1
(g335
(VSanuk Women's Yoga Sling 2 Flip Flop
p353
VShoes
p354
tp355
tp356
Rp357
ag1
(g335
(VSanuk Women's Yoga Sling 2 Flip Flop
p358
VShoes
p359
tp360
tp361
Rp362
ag1
(g335
(VSanuk Women's Yoga Sling 2 Flip Flop
p363
VShoes
p364
tp365
tp366
Rp367
ag1
(g335
(VSanuk Women's Yoga Sling 2 Flip Flop
p368
VShoes
p369
tp370
tp371
Rp372
ag1
(g335
(VSanuk Women's Yoga Sling 2 Flip Flop
p373
VShoes
p374
tp375
tp376
Rp377
ag1
(g335
(VSanuk Women's Yoga Sling 2 Flip Flop
p378
VShoes
p379
tp380
tp381
Rp382
ag1
(g335
(VSanuk Women's Yoga Sling 2 Flip Flop
p383
VShoes
p384
tp385
tp386
Rp387
ag1
(g335
(VSanuk Women's Yoga Sling 2 Flip Flop
p388
VShoes
p389
tp390
tp391
Rp392
ag1
(g335
(VSanuk Women's Yoga Sling 2 Flip Flop
p393
VShoes
p394
tp395
tp396
Rp397
ag1
(g335
(VSanuk Women's Yoga Sling 2 Flip Flop
p398
VShoes
p399
tp400
tp401
Rp402
ag1
(g335
(VSanuk Women's Yoga Sling 2 Flip Flop
p403
VShoes
p404
tp405
tp406
Rp407
ag1
(g335
(VSanuk Women's Yoga Sling 2 Flip Flop
p408
VShoes
p409
tp410
tp411
Rp412
ag1
(g335
(VSanuk Women's Yoga Sling 2 Flip Flop
p413
VShoes
p414
tp415
tp416
Rp417
ag1
(g335
(VSanuk Women's Yoga Sling 2 Flip Flop
p418
VShoes
p419
tp420
tp421
Rp422
ag1
(g335
(VSanuk Women's Yoga Sling 2 Flip Flop
p423
VShoes
p424
tp425
tp426
Rp427
ag1
(g335
(VSanuk Women's Yoga Sling 2 Flip Flop
p428
VShoes
p429
tp430
tp431
Rp432
ag1
(g335
(VSanuk Women's Yoga Sling 2 Flip Flop
p433
VShoes
p434
tp435
tp436
Rp437
ag1
(g335
(VSanuk Women's Yoga Sling 2 Flip Flop
p438
VShoes
p439
tp440
tp441
Rp442
ag1
(g335
(VSanuk Women's Yoga Sling 2 Flip Flop
p443
VShoes
p444
tp445
tp446
Rp447
ag1
(g335
(VSanuk Women's Yoga Sling 2 Flip Flop
p448
VShoes
p449
tp450
tp451
Rp452
ag1
(g335
(VSanuk Women's Yoga Sling 2 Flip Flop
p453
VShoes
p454
tp455
tp456
Rp457
ag1
(g335
(VSanuk Women's Yoga Sling 2 Flip Flop
p458
VShoes
p459
tp460
tp461
Rp462
ag1
(g335
(VSanuk Women's Yoga Sling 2 Flip Flop
p463
VShoes
p464
tp465
tp466
Rp467
ag1
(g335
(VSanuk Women's Yoga Sling 2 Flip Flop
p468
VShoes
p469
tp470
tp471
Rp472
ag1
(g335
(VSanuk Women's Yoga Sling 2 Flip Flop
p473
VShoes
p474
tp475
tp476
Rp477
ag1
(g335
(VSanuk Women's Yoga Sling 2 Flip Flop
p478
VShoes
p479
tp480
tp481
Rp482
ag1
(g335
(VSanuk Women's Yoga Sling 2 Flip Flop
p483
VShoes
p484
tp485
tp486
Rp487
ag1
(g335
(VSanuk Women's Yoga Sling 2 Flip Flop
p488
VShoes
p489
tp490
tp491
Rp492
ag1
(g335
(VSanuk Women's Yoga Sling 2 Flip Flop
p493
VShoes
p494
tp495
tp496
Rp497
ag1
(g335
(VSanuk Women's Yoga Sling 2 Flip Flop
p498
VShoes
p499
tp500
tp501
Rp502
ag1
(g335
(VSanuk Women's Yoga Sling 2 Flip Flop
p503
VShoes
p504
tp505
tp506
Rp507
ag1
(g335
(VSanuk Women's Yoga Sling 2 Flip Flop
p508
VShoes
p509
tp510
tp511
Rp512
ag1
(g335
(VSanuk Women's Yoga Sling 2 Flip Flop
p513
VShoes
p514
tp515
tp516
Rp517
ag1
(g335
(VSanuk Women's Yoga Sling 2 Flip Flop
p518
VShoes
p519
tp520
tp521
Rp522
ag1
(g335
(VCards Against Humanity
p523
VToys & Games
p524
tp525
tp526
Rp527
ag1
(g335
(VGrandma's Secret Spot Remover, 2-Ounce
p528
VArts, Crafts & Sewing
p529
tp530
tp531
Rp532
ag1
(g335
(VCrayola Crayons 24 Count - 2 Packs 52-0024-2 5200242, crayon great school
p533
VArts, Crafts & Sewing
p534
tp535
tp536
Rp537
ag1
(g335
(VO'Keeffe's Healthy Feet Creme 3.2oz Jar
p538
VHome Improvement
p539
tp540
tp541
Rp542
ag1
(g335
(VHoneywell TurboForce Fan, HT-900
p543
VHome &amp; Kitchen
p544
tp545
tp546
Rp547
ag1
(g335
(VCarter's Keep Me Dry Waterproof Fitted Quilted Crib Pad, White
p548
VBaby
p549
tp550
tp551
Rp552
ag1
(g335
(VDanby 0.7 cu.ft. Countertop Microwave, White
p553
VAppliances
p554
tp555
tp556
Rp557
ag1
(g335
(VRosencrantz and Guildenstern Are Dead
p558
VBooks
p559
tp560
tp561
Rp562
ag1
(g335
(ViMBAPrice iMBA-PS-06MF 6-Feet Gold Plated 3.5mm Male to 3.5mm Female Extension Stereo Audio Cable
p563
VMusical Instruments
p564
tp565
tp566
Rp567
ag1
(g335
(VGeneric Disney Frozen Dress Princess Elsa Girls Dress Costume Skirt Nightgown Pajama
p568
VClothing
p569
tp570
tp571
Rp572
ag1
(g335
(VGeneric Disney Frozen Dress Princess Elsa Girls Dress Costume Skirt Nightgown Pajama
p573
VClothing
p574
tp575
tp576
Rp577
ag1
(g335
(VGeneric Disney Frozen Dress Princess Elsa Girls Dress Costume Skirt Nightgown Pajama
p578
VClothing
p579
tp580
tp581
Rp582
ag1
(g335
(VGeneric Disney Frozen Dress Princess Elsa Girls Dress Costume Skirt Nightgown Pajama
p583
VClothing
p584
tp585
tp586
Rp587
ag1
(g335
(VLifeStraw Personal Water Filter
p588
VSports &amp; Outdoors
p589
tp590
tp591
Rp592
ag1
(g335
(VHSI PROFESSIONAL 1 CERAMIC TOURMALINE IONIC FLAT IRON HAIR STRAIGHTENER FREE GLOVE + POUCH AND travel size Argan Oil Leave In Hair Treatment. WORLDWIDE DUAL VOLTAGE 110v-220v
p593
VBeauty
p594
tp595
tp596
Rp597
ag1
(g335
(VNutella Hazelnut Spread, 13 Oz
p598
VPrime Pantry
p599
tp600
tp601
Rp602
ag1
(g335
(VGoogle Chromecast HDMI Streaming Media Player
p603
VElectronics
p604
tp605
tp606
Rp607
ag1
(g335
(VARRIS / Motorola SurfBoard SB6141 DOCSIS 3.0 Cable Modem - Retail Packaging - White
p608
VComputers & Accessories
p609
tp610
tp611
Rp612
ag1
(g335
(VViva Labs Organic Extra Virgin Coconut Oil, 16 Ounce
p613
VGrocery & Gourmet Food
p614
tp615
tp616
Rp617
ag1
(g335
(V2x Custom Chrome Billet Aluminium Comfortable Hand Grips Throttle Assistor Cruise Assist Wrist For Motorcycle Cruiser Chopper Touring 1&quot; Handlebar
p618
VAutomotive
p619
tp620
tp621
Rp622
ag1
(g335
(VFujifilm Instax Mini Instant Film, 10 Sheets x 5 packs
p623
VCamera &amp; Photo
p624
tp625
tp626
Rp627
ag1
(g335
(VPrecious Cat Ultra Premium Clumping Cat Litter, 40 pound bag
p628
VPet Supplies
p629
tp630
tp631
Rp632
ag1
(g335
(VPaderno World Cuisine A4982799 Tri-Blade Plastic Spiral Vegetable Slicer
p633
VKitchen & Dining
p634
tp635
tp636
Rp637
ag1
(g335
(VU.S. Polo Assn. Sport Men's US9061 Watch with Black Rubber Strap Watch
p638
VWatches
p639
tp640
tp641
Rp642
a.